ARM GAS  C:\Users\mahe\AppData\Local\Temp\ccoIDMGx.s 			page 1


   1              		.syntax unified
   2              		.cpu cortex-m0
   3              		.fpu softvfp
   4              		.eabi_attribute 20, 1
   5              		.eabi_attribute 21, 1
   6              		.eabi_attribute 23, 3
   7              		.eabi_attribute 24, 1
   8              		.eabi_attribute 25, 1
   9              		.eabi_attribute 26, 1
  10              		.eabi_attribute 30, 1
  11              		.eabi_attribute 34, 0
  12              		.eabi_attribute 18, 4
  13              		.thumb
  14              		.syntax unified
  15              		.file	"main.c"
  16              		.text
  17              	.Ltext0:
  18              		.cfi_sections	.debug_frame
  19              		.section	.text.main,"ax",%progbits
  20              		.align	2
  21              		.global	main
  22              		.code	16
  23              		.thumb_func
  24              		.type	main, %function
  25              	main:
  26              	.LFB0:
  27              		.file 1 "main.c"
   1:main.c        **** /* ========================================
   2:main.c        ****  * Name : Clock Basic
   3:main.c        ****  * Date : 11.09.18
   4:main.c        ****  * Author : Kartikey Agrawal
   5:main.c        ****  * Details : Basic implemention of setting clock in Clock
   6:main.c        ****  * 			 Refer to Architecture Technical Reference Manual for futher details
   7:main.c        ****  * https://drive.google.com/file/d/0B3i9TBs6C1vTdnVqTFlRdkxKeTRFY0tnaFZoVHBrVnJtY1E0/view?usp=drive
   8:main.c        **** */
   9:main.c        **** 
  10:main.c        **** 
  11:main.c        **** /* R0 = 100
  12:main.c        ****  * LSR R0, #2
  13:main.c        ****  * BEQ t_CyclesDone
  14:main.c        ****  * t_loop : SUB R0,#1
  15:main.c        ****  * BNE t_loop; Branch if not equal
  16:main.c        ****  * t_CyclesDone : BX LR
  17:main.c        **** */
  18:main.c        **** #include "t_udtypes.h"
  19:main.c        **** #include "t_CLOCK.h"
  20:main.c        **** #include "t_GPIO.h"
  21:main.c        **** 
  22:main.c        **** int main(void)
  23:main.c        **** {
  28              		.loc 1 23 0
  29              		.cfi_startproc
  30              		@ Volatile: function does not return.
  31              		@ args = 0, pretend = 0, frame = 0
  32              		@ frame_needed = 0, uses_anonymous_args = 0
  33 0000 70B5     		push	{r4, r5, r6, lr}
  34              		.cfi_def_cfa_offset 16
ARM GAS  C:\Users\mahe\AppData\Local\Temp\ccoIDMGx.s 			page 2


  35              		.cfi_offset 4, -16
  36              		.cfi_offset 5, -12
  37              		.cfi_offset 6, -8
  38              		.cfi_offset 14, -4
  24:main.c        **** 	GPIO_SET_MODE(GPIO_PRT2_PC, 6, GPIO_DM_STRONG);
  39              		.loc 1 24 0
  40 0002 104A     		ldr	r2, .L3
  41 0004 1168     		ldr	r1, [r2]
  42 0006 104B     		ldr	r3, .L3+4
  43 0008 0B40     		ands	r3, r1
  44 000a C021     		movs	r1, #192
  45 000c 4903     		lsls	r1, r1, #13
  46 000e 0B43     		orrs	r3, r1
  47 0010 1360     		str	r3, [r2]
  25:main.c        **** 	t_ClkWriteImoFreq(48u);
  48              		.loc 1 25 0
  49 0012 3020     		movs	r0, #48
  50 0014 FFF7FEFF 		bl	t_ClkWriteImoFreq
  51              	.LVL0:
  26:main.c        **** 	t_ClkWriteHfclkDirect(0x00);
  52              		.loc 1 26 0
  53 0018 0020     		movs	r0, #0
  54 001a FFF7FEFF 		bl	t_ClkWriteHfclkDirect
  55              	.LVL1:
  27:main.c        **** 	t_ClkWriteSysClkDiv(0);
  56              		.loc 1 27 0
  57 001e 0020     		movs	r0, #0
  58 0020 FFF7FEFF 		bl	t_ClkWriteSysClkDiv
  59              	.LVL2:
  60              	.L2:
  28:main.c        **** 	//500 Cycles delay
  29:main.c        **** 	//t_DelayCycles(500);
  30:main.c        ****     for(;;)
  31:main.c        ****     {
  32:main.c        **** 		GPIO_WRITE_PIN(GPIO_PRT2_DR, 6, 0);
  61              		.loc 1 32 0 discriminator 1
  62 0024 094C     		ldr	r4, .L3+8
  63 0026 2368     		ldr	r3, [r4]
  64 0028 4025     		movs	r5, #64
  65 002a AB43     		bics	r3, r5
  66 002c 2360     		str	r3, [r4]
  33:main.c        **** 		//t_Delay_ms(500);
  34:main.c        **** 		t_DelayCycles(48000000);
  67              		.loc 1 34 0 discriminator 1
  68 002e 084E     		ldr	r6, .L3+12
  69 0030 3000     		movs	r0, r6
  70 0032 FFF7FEFF 		bl	t_DelayCycles
  71              	.LVL3:
  35:main.c        **** 		GPIO_WRITE_PIN(GPIO_PRT2_DR, 6, 1);
  72              		.loc 1 35 0 discriminator 1
  73 0036 2368     		ldr	r3, [r4]
  74 0038 1D43     		orrs	r5, r3
  75 003a 2560     		str	r5, [r4]
  36:main.c        **** 		//t_Delay_ms(500);
  37:main.c        **** 		t_DelayCycles(48000000);
  76              		.loc 1 37 0 discriminator 1
  77 003c 3000     		movs	r0, r6
ARM GAS  C:\Users\mahe\AppData\Local\Temp\ccoIDMGx.s 			page 3


  78 003e FFF7FEFF 		bl	t_DelayCycles
  79              	.LVL4:
  80 0042 EFE7     		b	.L2
  81              	.L4:
  82              		.align	2
  83              	.L3:
  84 0044 08020440 		.word	1074004488
  85 0048 FFFFE3FF 		.word	-1835009
  86 004c 00020440 		.word	1074004480
  87 0050 006CDC02 		.word	48000000
  88              		.cfi_endproc
  89              	.LFE0:
  90              		.size	main, .-main
  91              		.text
  92              	.Letext0:
  93              		.file 2 "t_udtypes.h"
  94              		.file 3 "t_CLOCK.h"