ARM GAS  C:\Users\mahe\AppData\Local\Temp\ccFoSfBB.s 			page 1


   1              		.syntax unified
   2              		.cpu cortex-m0
   3              		.fpu softvfp
   4              		.eabi_attribute 20, 1
   5              		.eabi_attribute 21, 1
   6              		.eabi_attribute 23, 3
   7              		.eabi_attribute 24, 1
   8              		.eabi_attribute 25, 1
   9              		.eabi_attribute 26, 1
  10              		.eabi_attribute 30, 1
  11              		.eabi_attribute 34, 0
  12              		.eabi_attribute 18, 4
  13              		.thumb
  14              		.syntax unified
  15              		.file	"t_CLOCK.c"
  16              		.text
  17              	.Ltext0:
  18              		.cfi_sections	.debug_frame
  19              		.section	.text.t_DelayCycles,"ax",%progbits
  20              		.align	2
  21              		.global	t_DelayCycles
  22              		.code	16
  23              		.thumb_func
  24              		.type	t_DelayCycles, %function
  25              	t_DelayCycles:
  26              	.LFB3:
  27              		.file 1 "t_CLOCK.c"
   1:t_CLOCK.c     **** /* ========================================
   2:t_CLOCK.c     ****  * Name : Clock Basic
   3:t_CLOCK.c     ****  * Date : 17.09.18
   4:t_CLOCK.c     ****  * Author : Kartikey Agrawal
   5:t_CLOCK.c     ****  * Details : Source file for Clocking
   6:t_CLOCK.c     ****  * 			 Refer to Architecture Technical Reference Manual for futher details
   7:t_CLOCK.c     ****  * https://drive.google.com/file/d/0B3i9TBs6C1vTdnVqTFlRdkxKeTRFY0tnaFZoVHBrVnJtY1E0/view?usp=drive
   8:t_CLOCK.c     **** */
   9:t_CLOCK.c     **** 
  10:t_CLOCK.c     **** #include "t_CLOCK.h"
  11:t_CLOCK.c     **** 
  12:t_CLOCK.c     **** //setting default frequency as 48MHz
  13:t_CLOCK.c     **** t_uint32 t_sys_freq = 48000000;
  14:t_CLOCK.c     **** const t_reg8 t_ImoFreqMhz2Reg[46] = {
  15:t_CLOCK.c     ****             /*  3 MHz */ 0x03u,  /*  4 MHz */ 0x04u,  /*  5 MHz */ 0x05u,  /*  6 MHz */ 0x06u,
  16:t_CLOCK.c     ****             /*  7 MHz */ 0x07u,  /*  8 MHz */ 0x08u,  /*  9 MHz */ 0x09u,  /* 10 MHz */ 0x0Au,
  17:t_CLOCK.c     ****             /* 11 MHz */ 0x0Bu,  /* 12 MHz */ 0x0Cu,  /* 13 MHz */ 0x0Eu,  /* 14 MHz */ 0x0Fu,
  18:t_CLOCK.c     ****             /* 15 MHz */ 0x10u,  /* 16 MHz */ 0x11u,  /* 17 MHz */ 0x12u,  /* 18 MHz */ 0x13u,
  19:t_CLOCK.c     ****             /* 19 MHz */ 0x14u,  /* 20 MHz */ 0x15u,  /* 21 MHz */ 0x16u,  /* 22 MHz */ 0x17u,
  20:t_CLOCK.c     ****             /* 23 MHz */ 0x18u,  /* 24 MHz */ 0x19u,  /* 25 MHz */ 0x1Bu,  /* 26 MHz */ 0x1Cu,
  21:t_CLOCK.c     ****             /* 27 MHz */ 0x1Du,  /* 28 MHz */ 0x1Eu,  /* 29 MHz */ 0x1Fu,  /* 30 MHz */ 0x20u,
  22:t_CLOCK.c     ****             /* 31 MHz */ 0x21u,  /* 32 MHz */ 0x22u,  /* 33 MHz */ 0x23u,  /* 34 MHz */ 0x25u,
  23:t_CLOCK.c     ****             /* 35 MHz */ 0x26u,  /* 36 MHz */ 0x27u,  /* 37 MHz */ 0x28u,  /* 38 MHz */ 0x29u,
  24:t_CLOCK.c     ****             /* 39 MHz */ 0x2Au,  /* 40 MHz */ 0x2Bu,  /* 41 MHz */ 0x2Eu,  /* 42 MHz */ 0x2Fu,
  25:t_CLOCK.c     ****             /* 43 MHz */ 0x30u,  /* 44 MHz */ 0x31u,  /* 45 MHz */ 0x32u,  /* 46 MHz */ 0x33u,
  26:t_CLOCK.c     ****             /* 47 MHz */ 0x34u,  /* 48 MHz */ 0x35u };
  27:t_CLOCK.c     **** 
  28:t_CLOCK.c     **** 
  29:t_CLOCK.c     **** /*
  30:t_CLOCK.c     ****  * Name :       t_ClkWriteHfclkDirect()
ARM GAS  C:\Users\mahe\AppData\Local\Temp\ccFoSfBB.s 			page 2


  31:t_CLOCK.c     ****  * Function :   Select between source for High Frequency Clock 1) IMO 2)External Clock
  32:t_CLOCK.c     ****  * Paramaters : t_clkselect
  33:t_CLOCK.c     ****  * Details :    The value of "cycles" is stored in R0 where it is decremented 
  34:t_CLOCK.c     ****  *				writen in assembly language
  35:t_CLOCK.c     **** */
  36:t_CLOCK.c     **** void t_ClkWriteHfclkDirect(t_uint32 t_clkselect)
  37:t_CLOCK.c     **** {
  38:t_CLOCK.c     **** 	t_uint8 t_interruptState = t_EnterCriticalSection();
  39:t_CLOCK.c     **** 	
  40:t_CLOCK.c     **** 	(*(t_reg32*)REG_CLK_SELECT) = (*(t_reg32 *) 0x400b0100u)& ~((( t_uint32 ) 0x07u) |(t_clkselect & (
  41:t_CLOCK.c     **** 	
  42:t_CLOCK.c     ****     t_ExitCriticalSection(t_interruptState);
  43:t_CLOCK.c     **** }
  44:t_CLOCK.c     **** 
  45:t_CLOCK.c     **** /*
  46:t_CLOCK.c     ****  * Name :       t_ClkWriteSysclkDiv()
  47:t_CLOCK.c     ****  * Function :   To divide the high frequency clock to get the required clock frequency
  48:t_CLOCK.c     ****  * Paramaters : t_divider
  49:t_CLOCK.c     ****  * Details :    0x400b0100u = CLK_SELECT -> refer Register_Technical Reference manual
  50:t_CLOCK.c     **** */
  51:t_CLOCK.c     **** void t_ClkWriteSysClkDiv(t_uint32 t_divider)
  52:t_CLOCK.c     **** {
  53:t_CLOCK.c     ****     t_uint8  t_interruptState = t_EnterCriticalSection();
  54:t_CLOCK.c     ****     t_uint8 t_Sys_Clk_Div[8]={1,2,4,8,16,32,64,128};
  55:t_CLOCK.c     **** 	
  56:t_CLOCK.c     **** 	//21,20,19 clear and set that bit
  57:t_CLOCK.c     ****     (*(t_reg32 *) REG_CLK_SELECT) = ((*(t_reg32 *) REG_CLK_SELECT) & ((t_uint32)(~(t_uint32)((t_uin
  58:t_CLOCK.c     ****     t_sys_freq = t_sys_freq / t_Sys_Clk_Div[t_divider];
  59:t_CLOCK.c     ****     t_ExitCriticalSection(t_interruptState);
  60:t_CLOCK.c     **** 	
  61:t_CLOCK.c     **** }
  62:t_CLOCK.c     **** 
  63:t_CLOCK.c     **** /*
  64:t_CLOCK.c     ****  * Name :       t_Delay_ms
  65:t_CLOCK.c     ****  * Function :   To provide delay in Milli-seconds
  66:t_CLOCK.c     ****  * Paramaters : t_time_ms
  67:t_CLOCK.c     ****  * Details :    
  68:t_CLOCK.c     **** */
  69:t_CLOCK.c     **** void t_Delay_ms(t_uint32 t_time_ms)
  70:t_CLOCK.c     **** {
  71:t_CLOCK.c     **** 	//MHz to KHz andn delay for that time
  72:t_CLOCK.c     **** 	t_DelayCycles(t_time_ms *(t_sys_freq/1000u));
  73:t_CLOCK.c     **** }
  74:t_CLOCK.c     **** /*
  75:t_CLOCK.c     ****  * Name :       t_DelayCycles
  76:t_CLOCK.c     ****  * Function :   To give a delay of "cycles" Cycles
  77:t_CLOCK.c     ****  * Paramaters : cycles - unsigned long
  78:t_CLOCK.c     ****  * Details :    The value of "cycles" is stored in R0 where it is decremented 
  79:t_CLOCK.c     ****  *				writen in assembly language
  80:t_CLOCK.c     **** */
  81:t_CLOCK.c     **** t_DelayCycles(t_uint32 cycles)
  82:t_CLOCK.c     **** {
  28              		.loc 1 82 0
  29              		.cfi_startproc
  30              		@ args = 0, pretend = 0, frame = 0
  31              		@ frame_needed = 0, uses_anonymous_args = 0
  32              		@ link register save eliminated.
ARM GAS  C:\Users\mahe\AppData\Local\Temp\ccFoSfBB.s 			page 3


  33              	.LVL0:
  83:t_CLOCK.c     **** 	asm("LSR R0, #2");
  34              		.loc 1 83 0
  35              		.syntax divided
  36              	@ 83 "t_CLOCK.c" 1
  37 0000 8008     		LSR R0, #2
  38              	@ 0 "" 2
  84:t_CLOCK.c     **** 	asm("BEQ t_CyclesDone");
  39              		.loc 1 84 0
  40              	@ 84 "t_CLOCK.c" 1
  41 0002 01D0     		BEQ t_CyclesDone
  42              	@ 0 "" 2
  85:t_CLOCK.c     **** 	asm("t_LOOP: SUB R0, #1");
  43              		.loc 1 85 0
  44              	@ 85 "t_CLOCK.c" 1
  45 0004 0138     		t_LOOP: SUB R0, #1
  46              	@ 0 "" 2
  86:t_CLOCK.c     **** 	asm("BNE t_LOOP");
  47              		.loc 1 86 0
  48              	@ 86 "t_CLOCK.c" 1
  49 0006 FDD1     		BNE t_LOOP
  50              	@ 0 "" 2
  87:t_CLOCK.c     **** 	asm("t_CyclesDone: BX LR");
  51              		.loc 1 87 0
  52              	@ 87 "t_CLOCK.c" 1
  53 0008 7047     		t_CyclesDone: BX LR
  54              	@ 0 "" 2
  88:t_CLOCK.c     **** }
  55              		.loc 1 88 0
  56              		.thumb
  57              		.syntax unified
  58              		@ sp needed
  59 000a 7047     		bx	lr
  60              		.cfi_endproc
  61              	.LFE3:
  62              		.size	t_DelayCycles, .-t_DelayCycles
  63              		.global	__aeabi_uidiv
  64              		.section	.text.t_Delay_ms,"ax",%progbits
  65              		.align	2
  66              		.global	t_Delay_ms
  67              		.code	16
  68              		.thumb_func
  69              		.type	t_Delay_ms, %function
  70              	t_Delay_ms:
  71              	.LFB2:
  70:t_CLOCK.c     **** 	//MHz to KHz andn delay for that time
  72              		.loc 1 70 0
  73              		.cfi_startproc
  74              		@ args = 0, pretend = 0, frame = 0
  75              		@ frame_needed = 0, uses_anonymous_args = 0
  76              	.LVL1:
  77 0000 10B5     		push	{r4, lr}
  78              		.cfi_def_cfa_offset 8
  79              		.cfi_offset 4, -8
  80              		.cfi_offset 14, -4
  81 0002 0400     		movs	r4, r0
  72:t_CLOCK.c     **** }
ARM GAS  C:\Users\mahe\AppData\Local\Temp\ccFoSfBB.s 			page 4


  82              		.loc 1 72 0
  83 0004 044B     		ldr	r3, .L3
  84 0006 1868     		ldr	r0, [r3]
  85              	.LVL2:
  86 0008 FA21     		movs	r1, #250
  87 000a 8900     		lsls	r1, r1, #2
  88 000c FFF7FEFF 		bl	__aeabi_uidiv
  89              	.LVL3:
  90 0010 6043     		muls	r0, r4
  91 0012 FFF7FEFF 		bl	t_DelayCycles
  92              	.LVL4:
  73:t_CLOCK.c     **** /*
  93              		.loc 1 73 0
  94              		@ sp needed
  95              	.LVL5:
  96 0016 10BD     		pop	{r4, pc}
  97              	.L4:
  98              		.align	2
  99              	.L3:
 100 0018 00000000 		.word	.LANCHOR0
 101              		.cfi_endproc
 102              	.LFE2:
 103              		.size	t_Delay_ms, .-t_Delay_ms
 104              		.section	.text.t_EnterCriticalSection,"ax",%progbits
 105              		.align	2
 106              		.global	t_EnterCriticalSection
 107              		.code	16
 108              		.thumb_func
 109              		.type	t_EnterCriticalSection, %function
 110              	t_EnterCriticalSection:
 111              	.LFB4:
  89:t_CLOCK.c     **** 
  90:t_CLOCK.c     **** t_uint8 t_EnterCriticalSection(void)
  91:t_CLOCK.c     **** {
 112              		.loc 1 91 0
 113              		.cfi_startproc
 114              		@ args = 0, pretend = 0, frame = 0
 115              		@ frame_needed = 0, uses_anonymous_args = 0
 116              		@ link register save eliminated.
  92:t_CLOCK.c     **** 	//Move from Special to working register
  93:t_CLOCK.c     **** 	asm("MRS R0, PRIMASK");
 117              		.loc 1 93 0
 118              		.syntax divided
 119              	@ 93 "t_CLOCK.c" 1
 120 0000 EFF31080 		MRS R0, PRIMASK
 121              	@ 0 "" 2
  94:t_CLOCK.c     **** 	//Disable Interrupt
  95:t_CLOCK.c     **** 	asm("CPSID I");
 122              		.loc 1 95 0
 123              	@ 95 "t_CLOCK.c" 1
 124 0004 72B6     		CPSID I
 125              	@ 0 "" 2
  96:t_CLOCK.c     **** 	//
  97:t_CLOCK.c     **** 	asm("BX LR");
 126              		.loc 1 97 0
 127              	@ 97 "t_CLOCK.c" 1
 128 0006 7047     		BX LR
ARM GAS  C:\Users\mahe\AppData\Local\Temp\ccFoSfBB.s 			page 5


 129              	@ 0 "" 2
  98:t_CLOCK.c     **** }
 130              		.loc 1 98 0
 131              		.thumb
 132              		.syntax unified
 133              		@ sp needed
 134 0008 7047     		bx	lr
 135              		.cfi_endproc
 136              	.LFE4:
 137              		.size	t_EnterCriticalSection, .-t_EnterCriticalSection
 138 000a C046     		.section	.text.t_ExitCriticalSection,"ax",%progbits
 139              		.align	2
 140              		.global	t_ExitCriticalSection
 141              		.code	16
 142              		.thumb_func
 143              		.type	t_ExitCriticalSection, %function
 144              	t_ExitCriticalSection:
 145              	.LFB5:
  99:t_CLOCK.c     **** 
 100:t_CLOCK.c     **** /*
 101:t_CLOCK.c     ****  * Name :       t_ExitCriticalSection
 102:t_CLOCK.c     ****  * Function :   To exit critical section
 103:t_CLOCK.c     ****  * Paramaters : t_IntrStatus -> which sends the value of R0
 104:t_CLOCK.c     ****  * Details :    The value of "cycles" is stored in R0 where it is decremented 
 105:t_CLOCK.c     ****  *				writen in assembly language
 106:t_CLOCK.c     **** */
 107:t_CLOCK.c     **** void t_ExitCriticalSection(t_uint8 t_IntrStatus)
 108:t_CLOCK.c     **** {
 146              		.loc 1 108 0
 147              		.cfi_startproc
 148              		@ args = 0, pretend = 0, frame = 0
 149              		@ frame_needed = 0, uses_anonymous_args = 0
 150              		@ link register save eliminated.
 151              	.LVL6:
 109:t_CLOCK.c     **** 	asm("MSR PRIMASK, R0");
 152              		.loc 1 109 0
 153              		.syntax divided
 154              	@ 109 "t_CLOCK.c" 1
 155 0000 80F31088 		MSR PRIMASK, R0
 156              	@ 0 "" 2
 110:t_CLOCK.c     **** 	asm("BX LR");
 157              		.loc 1 110 0
 158              	@ 110 "t_CLOCK.c" 1
 159 0004 7047     		BX LR
 160              	@ 0 "" 2
 111:t_CLOCK.c     **** }
 161              		.loc 1 111 0
 162              		.thumb
 163              		.syntax unified
 164              		@ sp needed
 165 0006 7047     		bx	lr
 166              		.cfi_endproc
 167              	.LFE5:
 168              		.size	t_ExitCriticalSection, .-t_ExitCriticalSection
 169              		.section	.text.t_ClkWriteHfclkDirect,"ax",%progbits
 170              		.align	2
 171              		.global	t_ClkWriteHfclkDirect
ARM GAS  C:\Users\mahe\AppData\Local\Temp\ccFoSfBB.s 			page 6


 172              		.code	16
 173              		.thumb_func
 174              		.type	t_ClkWriteHfclkDirect, %function
 175              	t_ClkWriteHfclkDirect:
 176              	.LFB0:
  37:t_CLOCK.c     **** 	t_uint8 t_interruptState = t_EnterCriticalSection();
 177              		.loc 1 37 0
 178              		.cfi_startproc
 179              		@ args = 0, pretend = 0, frame = 0
 180              		@ frame_needed = 0, uses_anonymous_args = 0
 181              	.LVL7:
 182 0000 10B5     		push	{r4, lr}
 183              		.cfi_def_cfa_offset 8
 184              		.cfi_offset 4, -8
 185              		.cfi_offset 14, -4
  38:t_CLOCK.c     **** 	
 186              		.loc 1 38 0
 187 0002 FFF7FEFF 		bl	t_EnterCriticalSection
 188              	.LVL8:
  40:t_CLOCK.c     **** 	
 189              		.loc 1 40 0
 190 0006 044A     		ldr	r2, .L8
 191 0008 1368     		ldr	r3, [r2]
 192 000a 0721     		movs	r1, #7
 193 000c 8B43     		bics	r3, r1
 194 000e 1360     		str	r3, [r2]
  42:t_CLOCK.c     **** }
 195              		.loc 1 42 0
 196 0010 FFF7FEFF 		bl	t_ExitCriticalSection
 197              	.LVL9:
  43:t_CLOCK.c     **** 
 198              		.loc 1 43 0
 199              		@ sp needed
 200 0014 10BD     		pop	{r4, pc}
 201              	.L9:
 202 0016 C046     		.align	2
 203              	.L8:
 204 0018 00010B40 		.word	1074462976
 205              		.cfi_endproc
 206              	.LFE0:
 207              		.size	t_ClkWriteHfclkDirect, .-t_ClkWriteHfclkDirect
 208              		.section	.text.t_ClkWriteSysClkDiv,"ax",%progbits
 209              		.align	2
 210              		.global	t_ClkWriteSysClkDiv
 211              		.code	16
 212              		.thumb_func
 213              		.type	t_ClkWriteSysClkDiv, %function
 214              	t_ClkWriteSysClkDiv:
 215              	.LFB1:
  52:t_CLOCK.c     ****     t_uint8  t_interruptState = t_EnterCriticalSection();
 216              		.loc 1 52 0
 217              		.cfi_startproc
 218              		@ args = 0, pretend = 0, frame = 8
 219              		@ frame_needed = 0, uses_anonymous_args = 0
 220              	.LVL10:
 221 0000 30B5     		push	{r4, r5, lr}
 222              		.cfi_def_cfa_offset 12
ARM GAS  C:\Users\mahe\AppData\Local\Temp\ccFoSfBB.s 			page 7


 223              		.cfi_offset 4, -12
 224              		.cfi_offset 5, -8
 225              		.cfi_offset 14, -4
 226 0002 83B0     		sub	sp, sp, #12
 227              		.cfi_def_cfa_offset 24
 228 0004 0500     		movs	r5, r0
  53:t_CLOCK.c     ****     t_uint8 t_Sys_Clk_Div[8]={1,2,4,8,16,32,64,128};
 229              		.loc 1 53 0
 230 0006 FFF7FEFF 		bl	t_EnterCriticalSection
 231              	.LVL11:
 232 000a 0400     		movs	r4, r0
 233              	.LVL12:
  54:t_CLOCK.c     **** 	
 234              		.loc 1 54 0
 235 000c 0822     		movs	r2, #8
 236 000e 0D49     		ldr	r1, .L11
 237 0010 6846     		mov	r0, sp
 238 0012 FFF7FEFF 		bl	memcpy
 239              	.LVL13:
  57:t_CLOCK.c     ****     t_sys_freq = t_sys_freq / t_Sys_Clk_Div[t_divider];
 240              		.loc 1 57 0
 241 0016 0C48     		ldr	r0, .L11+4
 242 0018 0368     		ldr	r3, [r0]
 243 001a 9B0D     		lsrs	r3, r3, #22
 244 001c 9905     		lsls	r1, r3, #22
 245 001e EB04     		lsls	r3, r5, #19
 246 0020 E022     		movs	r2, #224
 247 0022 9203     		lsls	r2, r2, #14
 248 0024 1340     		ands	r3, r2
 249 0026 0B43     		orrs	r3, r1
 250 0028 0360     		str	r3, [r0]
  58:t_CLOCK.c     ****     t_ExitCriticalSection(t_interruptState);
 251              		.loc 1 58 0
 252 002a 6B46     		mov	r3, sp
 253 002c 595D     		ldrb	r1, [r3, r5]
 254 002e 074D     		ldr	r5, .L11+8
 255              	.LVL14:
 256 0030 2868     		ldr	r0, [r5]
 257 0032 FFF7FEFF 		bl	__aeabi_uidiv
 258              	.LVL15:
 259 0036 2860     		str	r0, [r5]
  59:t_CLOCK.c     **** 	
 260              		.loc 1 59 0
 261 0038 2000     		movs	r0, r4
 262 003a FFF7FEFF 		bl	t_ExitCriticalSection
 263              	.LVL16:
  61:t_CLOCK.c     **** 
 264              		.loc 1 61 0
 265 003e 03B0     		add	sp, sp, #12
 266              		@ sp needed
 267              	.LVL17:
 268 0040 30BD     		pop	{r4, r5, pc}
 269              	.L12:
 270 0042 C046     		.align	2
 271              	.L11:
 272 0044 00000000 		.word	.LANCHOR1
 273 0048 00010B40 		.word	1074462976
ARM GAS  C:\Users\mahe\AppData\Local\Temp\ccFoSfBB.s 			page 8


 274 004c 00000000 		.word	.LANCHOR0
 275              		.cfi_endproc
 276              	.LFE1:
 277              		.size	t_ClkWriteSysClkDiv, .-t_ClkWriteSysClkDiv
 278              		.section	.text.t_ClkWriteImoFreq,"ax",%progbits
 279              		.align	2
 280              		.global	t_ClkWriteImoFreq
 281              		.code	16
 282              		.thumb_func
 283              		.type	t_ClkWriteImoFreq, %function
 284              	t_ClkWriteImoFreq:
 285              	.LFB6:
 112:t_CLOCK.c     **** 
 113:t_CLOCK.c     **** 
 114:t_CLOCK.c     **** /*
 115:t_CLOCK.c     ****  * Name :       t_ClkWriteImoFreq
 116:t_CLOCK.c     ****  * Function :   To write frequency
 117:t_CLOCK.c     ****  * Paramaters : t_freq -> value of frequency required
 118:t_CLOCK.c     ****  * Details :    Clocking algorith implmentation
 119:t_CLOCK.c     ****  *				For details see : 
 120:t_CLOCK.c     **** */
 121:t_CLOCK.c     **** void t_ClkWriteImoFreq(t_uint8 t_freq)
 122:t_CLOCK.c     **** {
 286              		.loc 1 122 0
 287              		.cfi_startproc
 288              		@ args = 0, pretend = 0, frame = 8
 289              		@ frame_needed = 0, uses_anonymous_args = 0
 290              	.LVL18:
 291 0000 F0B5     		push	{r4, r5, r6, r7, lr}
 292              		.cfi_def_cfa_offset 20
 293              		.cfi_offset 4, -20
 294              		.cfi_offset 5, -16
 295              		.cfi_offset 6, -12
 296              		.cfi_offset 7, -8
 297              		.cfi_offset 14, -4
 298 0002 5746     		mov	r7, r10
 299 0004 4E46     		mov	r6, r9
 300 0006 C0B4     		push	{r6, r7}
 301              		.cfi_def_cfa_offset 28
 302              		.cfi_offset 9, -28
 303              		.cfi_offset 10, -24
 304 0008 83B0     		sub	sp, sp, #12
 305              		.cfi_def_cfa_offset 40
 306 000a 0400     		movs	r4, r0
 123:t_CLOCK.c     **** 	t_uint8 t_bgtrim4;
 124:t_CLOCK.c     **** 	t_uint8 t_bgtrim5;
 125:t_CLOCK.c     **** 	t_uint8 t_newImoTrim2Value;
 126:t_CLOCK.c     **** 	t_uint8 t_currentImoTrim2Value;
 127:t_CLOCK.c     **** 	t_uint8 t_imoTrim1Value;
 128:t_CLOCK.c     **** 	
 129:t_CLOCK.c     **** 	//From here on interrupts are disabled
 130:t_CLOCK.c     **** 	t_uint8 t_interruptstate = t_EnterCriticalSection();
 307              		.loc 1 130 0
 308 000c FFF7FEFF 		bl	t_EnterCriticalSection
 309              	.LVL19:
 310 0010 0190     		str	r0, [sp, #4]
 311              	.LVL20:
ARM GAS  C:\Users\mahe\AppData\Local\Temp\ccFoSfBB.s 			page 9


 131:t_CLOCK.c     **** 	
 132:t_CLOCK.c     **** 	if((t_freq >= 3u) && (t_freq <= 48u))
 312              		.loc 1 132 0
 313 0012 E31E     		subs	r3, r4, #3
 314 0014 DBB2     		uxtb	r3, r3
 315 0016 2D2B     		cmp	r3, #45
 316 0018 00D9     		bls	.LCB201
 317 001a 84E0     		b	.L14	@long jump
 318              	.LCB201:
 133:t_CLOCK.c     **** 	{
 134:t_CLOCK.c     **** 		if(t_freq <= (*(t_reg8*)SFLASH_IMO_MAXF0))
 319              		.loc 1 134 0
 320 001c 484B     		ldr	r3, .L22
 321 001e 1B78     		ldrb	r3, [r3]
 322 0020 DBB2     		uxtb	r3, r3
 323 0022 9C42     		cmp	r4, r3
 324 0024 06D8     		bhi	.L15
 135:t_CLOCK.c     **** 		{
 136:t_CLOCK.c     **** 			t_bgtrim4 = (*(t_reg8*)SFLASH_IMO_ABS0);
 325              		.loc 1 136 0
 326 0026 474B     		ldr	r3, .L22+4
 327 0028 1B78     		ldrb	r3, [r3]
 328 002a DDB2     		uxtb	r5, r3
 329              	.LVL21:
 137:t_CLOCK.c     **** 			t_bgtrim5 = (*(t_reg8*)SFLASH_IMO_TMPCO0);
 330              		.loc 1 137 0
 331 002c 464B     		ldr	r3, .L22+8
 332 002e 1F78     		ldrb	r7, [r3]
 333 0030 FFB2     		uxtb	r7, r7
 334              	.LVL22:
 335 0032 29E0     		b	.L16
 336              	.LVL23:
 337              	.L15:
 138:t_CLOCK.c     **** 		}
 139:t_CLOCK.c     **** 		
 140:t_CLOCK.c     **** 		else if(t_freq <= (*(t_reg8*)SFLASH_IMO_MAXF1))
 338              		.loc 1 140 0
 339 0034 454B     		ldr	r3, .L22+12
 340 0036 1B78     		ldrb	r3, [r3]
 341 0038 DBB2     		uxtb	r3, r3
 342 003a 9C42     		cmp	r4, r3
 343 003c 06D8     		bhi	.L17
 141:t_CLOCK.c     **** 		{
 142:t_CLOCK.c     **** 			t_bgtrim4 = (*(t_reg8*)SFLASH_IMO_ABS1);
 344              		.loc 1 142 0
 345 003e 444B     		ldr	r3, .L22+16
 346 0040 1B78     		ldrb	r3, [r3]
 347 0042 DDB2     		uxtb	r5, r3
 348              	.LVL24:
 143:t_CLOCK.c     **** 			t_bgtrim5 = (*(t_reg8*)SFLASH_IMO_TMPCO1);
 349              		.loc 1 143 0
 350 0044 434B     		ldr	r3, .L22+20
 351 0046 1F78     		ldrb	r7, [r3]
 352 0048 FFB2     		uxtb	r7, r7
 353              	.LVL25:
 354 004a 1DE0     		b	.L16
 355              	.LVL26:
ARM GAS  C:\Users\mahe\AppData\Local\Temp\ccFoSfBB.s 			page 10


 356              	.L17:
 144:t_CLOCK.c     **** 		}
 145:t_CLOCK.c     **** 		
 146:t_CLOCK.c     **** 		else if(t_freq <= (*(t_reg8*)SFLASH_IMO_MAXF2))
 357              		.loc 1 146 0
 358 004c 424B     		ldr	r3, .L22+24
 359 004e 1B78     		ldrb	r3, [r3]
 360 0050 DBB2     		uxtb	r3, r3
 361 0052 9C42     		cmp	r4, r3
 362 0054 06D8     		bhi	.L18
 147:t_CLOCK.c     **** 		{
 148:t_CLOCK.c     **** 			t_bgtrim4 = (*(t_reg8*)SFLASH_IMO_ABS2);
 363              		.loc 1 148 0
 364 0056 414B     		ldr	r3, .L22+28
 365 0058 1B78     		ldrb	r3, [r3]
 366 005a DDB2     		uxtb	r5, r3
 367              	.LVL27:
 149:t_CLOCK.c     **** 			t_bgtrim5 = (*(t_reg8*)SFLASH_IMO_TMPCO2);
 368              		.loc 1 149 0
 369 005c 404B     		ldr	r3, .L22+32
 370 005e 1F78     		ldrb	r7, [r3]
 371 0060 FFB2     		uxtb	r7, r7
 372              	.LVL28:
 373 0062 11E0     		b	.L16
 374              	.LVL29:
 375              	.L18:
 150:t_CLOCK.c     **** 		}
 151:t_CLOCK.c     **** 		
 152:t_CLOCK.c     **** 		else if(t_freq <= (*(t_reg8*)SFLASH_IMO_MAXF3))
 376              		.loc 1 152 0
 377 0064 3F4B     		ldr	r3, .L22+36
 378 0066 1B78     		ldrb	r3, [r3]
 379 0068 DBB2     		uxtb	r3, r3
 380 006a 9C42     		cmp	r4, r3
 381 006c 06D8     		bhi	.L19
 153:t_CLOCK.c     **** 		{
 154:t_CLOCK.c     **** 			t_bgtrim4 = (*(t_reg8*)SFLASH_IMO_ABS3);
 382              		.loc 1 154 0
 383 006e 3E4B     		ldr	r3, .L22+40
 384 0070 1B78     		ldrb	r3, [r3]
 385 0072 DDB2     		uxtb	r5, r3
 386              	.LVL30:
 155:t_CLOCK.c     **** 			t_bgtrim5 = (*(t_reg8*)SFLASH_IMO_TMPCO3);
 387              		.loc 1 155 0
 388 0074 3D4B     		ldr	r3, .L22+44
 389 0076 1F78     		ldrb	r7, [r3]
 390 0078 FFB2     		uxtb	r7, r7
 391              	.LVL31:
 392 007a 05E0     		b	.L16
 393              	.LVL32:
 394              	.L19:
 156:t_CLOCK.c     **** 		}
 157:t_CLOCK.c     **** 		else
 158:t_CLOCK.c     **** 		{
 159:t_CLOCK.c     **** 			t_bgtrim4 = (*(t_reg8*)SFLASH_IMO_ABS4);
 395              		.loc 1 159 0
 396 007c 3C4B     		ldr	r3, .L22+48
ARM GAS  C:\Users\mahe\AppData\Local\Temp\ccFoSfBB.s 			page 11


 397 007e 1B78     		ldrb	r3, [r3]
 398 0080 DDB2     		uxtb	r5, r3
 399              	.LVL33:
 160:t_CLOCK.c     **** 			t_bgtrim5 = (*(t_reg8*)SFLASH_IMO_TMPCO4);
 400              		.loc 1 160 0
 401 0082 3C4B     		ldr	r3, .L22+52
 402 0084 1F78     		ldrb	r7, [r3]
 403 0086 FFB2     		uxtb	r7, r7
 404              	.LVL34:
 405              	.L16:
 161:t_CLOCK.c     **** 		}
 162:t_CLOCK.c     **** 		
 163:t_CLOCK.c     **** 		t_newImoTrim2Value = t_ImoFreqMhz2Reg[t_freq - 3];
 406              		.loc 1 163 0
 407 0088 E61E     		subs	r6, r4, #3
 408 008a 3B4B     		ldr	r3, .L22+56
 409 008c 9B19     		adds	r3, r3, r6
 410 008e 1B79     		ldrb	r3, [r3, #4]
 411 0090 DBB2     		uxtb	r3, r3
 412              	.LVL35:
 164:t_CLOCK.c     **** 		t_currentImoTrim2Value =(t_uint32)(*((t_reg32*)REG_CLK_IMO_TRIM2) & 0x3F);
 413              		.loc 1 164 0
 414 0092 3A4A     		ldr	r2, .L22+60
 415 0094 1268     		ldr	r2, [r2]
 416 0096 3F21     		movs	r1, #63
 417 0098 0A40     		ands	r2, r1
 418              	.LVL36:
 165:t_CLOCK.c     **** 		
 166:t_CLOCK.c     **** 		if(((t_newImoTrim2Value >= 0x30u) && (t_freq >= 43u)&&(t_currentImoTrim2Value >= 43u)))
 419              		.loc 1 166 0
 420 009a 2F2B     		cmp	r3, #47
 421 009c 1CD9     		bls	.L20
 422              		.loc 1 166 0 is_stmt 0 discriminator 1
 423 009e 2A2C     		cmp	r4, #42
 424 00a0 1AD9     		bls	.L20
 425              		.loc 1 166 0 discriminator 2
 426 00a2 2A2A     		cmp	r2, #42
 427 00a4 18D9     		bls	.L20
 167:t_CLOCK.c     **** 		{
 168:t_CLOCK.c     **** 			//Change CLK_IMO_TRIM2 to a lower frequency 24Mhz
 169:t_CLOCK.c     **** 			*(t_reg32*)REG_CLK_IMO_TRIM2 = (t_uint32)t_ImoFreqMhz2Reg[24u - 3];
 428              		.loc 1 169 0 is_stmt 1
 429 00a6 344B     		ldr	r3, .L22+56
 430              	.LVL37:
 431 00a8 9946     		mov	r9, r3
 432 00aa 5B7E     		ldrb	r3, [r3, #25]
 433 00ac DBB2     		uxtb	r3, r3
 434 00ae 334A     		ldr	r2, .L22+60
 435              	.LVL38:
 436 00b0 9246     		mov	r10, r2
 437 00b2 1360     		str	r3, [r2]
 438              	.LVL39:
 170:t_CLOCK.c     **** 			
 171:t_CLOCK.c     **** 			//Apply TRIM1, 
 172:t_CLOCK.c     **** 			t_imoTrim1Value = (t_uint8) (((t_uint8 *)SFLASH_IMO_TRIM_BASE)[t_freq-3]);
 439              		.loc 1 172 0
 440 00b4 2F4B     		ldr	r3, .L22+52
ARM GAS  C:\Users\mahe\AppData\Local\Temp\ccFoSfBB.s 			page 12


 441 00b6 E318     		adds	r3, r4, r3
 442 00b8 1A78     		ldrb	r2, [r3]
 443              	.LVL40:
 173:t_CLOCK.c     **** 			*(t_reg32*)REG_CLK_IMO_TRIM1=(t_uint32)t_imoTrim1Value;
 444              		.loc 1 173 0
 445 00ba 314B     		ldr	r3, .L22+64
 446 00bc 1A60     		str	r2, [r3]
 174:t_CLOCK.c     ****             *(t_reg32*)REG_PWR_BG_TRIM4=t_bgtrim4;
 447              		.loc 1 174 0
 448 00be 314B     		ldr	r3, .L22+68
 449 00c0 1D60     		str	r5, [r3]
 175:t_CLOCK.c     ****             *(t_reg32*)REG_PWR_BR_TRIM5=t_bgtrim5;
 450              		.loc 1 175 0
 451 00c2 314B     		ldr	r3, .L22+72
 452 00c4 1F60     		str	r7, [r3]
 176:t_CLOCK.c     **** 			
 177:t_CLOCK.c     **** 			//Delay for 5 millis
 178:t_CLOCK.c     ****             t_DelayCycles(5u);
 453              		.loc 1 178 0
 454 00c6 0520     		movs	r0, #5
 455 00c8 FFF7FEFF 		bl	t_DelayCycles
 456              	.LVL41:
 179:t_CLOCK.c     **** 			
 180:t_CLOCK.c     **** 			//Change the Imo Frequency to the new Frequency
 181:t_CLOCK.c     ****             *(t_reg32*)0x400BFF2C=t_ImoFreqMhz2Reg[t_freq-3];
 457              		.loc 1 181 0
 458 00cc 4E44     		add	r6, r6, r9
 459 00ce 3379     		ldrb	r3, [r6, #4]
 460 00d0 DBB2     		uxtb	r3, r3
 461 00d2 5246     		mov	r2, r10
 462 00d4 1360     		str	r3, [r2]
 463 00d6 26E0     		b	.L14
 464              	.LVL42:
 465              	.L20:
 182:t_CLOCK.c     **** 		}
 183:t_CLOCK.c     **** 		else if (t_newImoTrim2Value > t_currentImoTrim2Value)
 466              		.loc 1 183 0
 467 00d8 9342     		cmp	r3, r2
 468 00da 12D9     		bls	.L21
 184:t_CLOCK.c     ****         {
 185:t_CLOCK.c     ****         	t_imoTrim1Value = (t_uint8) ( ((t_uint8 *) SFLASH_IMO_TRIM_BASE)[t_freq-3]);
 469              		.loc 1 185 0
 470 00dc 254B     		ldr	r3, .L22+52
 471              	.LVL43:
 472 00de E318     		adds	r3, r4, r3
 473 00e0 1A78     		ldrb	r2, [r3]
 474              	.LVL44:
 186:t_CLOCK.c     ****         	*(t_reg32*)REG_CLK_IMO_TRIM1 = (t_uint32)t_imoTrim1Value;
 475              		.loc 1 186 0
 476 00e2 274B     		ldr	r3, .L22+64
 477 00e4 1A60     		str	r2, [r3]
 478              	.LVL45:
 187:t_CLOCK.c     ****         	*(t_reg32*)REG_PWR_BG_TRIM4 = t_bgtrim4;
 479              		.loc 1 187 0
 480 00e6 274B     		ldr	r3, .L22+68
 481 00e8 1D60     		str	r5, [r3]
 188:t_CLOCK.c     ****         	*(t_reg32*)REG_PWR_BR_TRIM5 = t_bgtrim5;
ARM GAS  C:\Users\mahe\AppData\Local\Temp\ccFoSfBB.s 			page 13


 482              		.loc 1 188 0
 483 00ea 274B     		ldr	r3, .L22+72
 484 00ec 1F60     		str	r7, [r3]
 189:t_CLOCK.c     **** 			
 190:t_CLOCK.c     ****         	t_DelayCycles(5u);
 485              		.loc 1 190 0
 486 00ee 0520     		movs	r0, #5
 487 00f0 FFF7FEFF 		bl	t_DelayCycles
 488              	.LVL46:
 191:t_CLOCK.c     **** 			
 192:t_CLOCK.c     ****         	*(t_reg32*)0x400BFF2C=t_ImoFreqMhz2Reg[t_freq-3];    
 489              		.loc 1 192 0
 490 00f4 204B     		ldr	r3, .L22+56
 491 00f6 9E19     		adds	r6, r3, r6
 492 00f8 3379     		ldrb	r3, [r6, #4]
 493 00fa DBB2     		uxtb	r3, r3
 494 00fc 1F4A     		ldr	r2, .L22+60
 495 00fe 1360     		str	r3, [r2]
 496 0100 11E0     		b	.L14
 497              	.LVL47:
 498              	.L21:
 193:t_CLOCK.c     ****         }
 194:t_CLOCK.c     ****         else
 195:t_CLOCK.c     ****         {
 196:t_CLOCK.c     ****         	*(t_reg32*)0x400BFF2C=t_ImoFreqMhz2Reg[t_freq-3];
 499              		.loc 1 196 0
 500 0102 1D4B     		ldr	r3, .L22+56
 501              	.LVL48:
 502 0104 9E19     		adds	r6, r3, r6
 503 0106 3379     		ldrb	r3, [r6, #4]
 504 0108 DBB2     		uxtb	r3, r3
 505 010a 1C4A     		ldr	r2, .L22+60
 506              	.LVL49:
 507 010c 1360     		str	r3, [r2]
 508              	.LVL50:
 197:t_CLOCK.c     **** 			
 198:t_CLOCK.c     ****         	t_DelayCycles(5u);
 509              		.loc 1 198 0
 510 010e 0520     		movs	r0, #5
 511 0110 FFF7FEFF 		bl	t_DelayCycles
 512              	.LVL51:
 199:t_CLOCK.c     **** 			
 200:t_CLOCK.c     ****         	t_imoTrim1Value = (t_uint8) ( ((t_uint8 *) SFLASH_IMO_TRIM_BASE)[t_freq-3]);
 513              		.loc 1 200 0
 514 0114 174B     		ldr	r3, .L22+52
 515 0116 E318     		adds	r3, r4, r3
 516 0118 1A78     		ldrb	r2, [r3]
 517              	.LVL52:
 201:t_CLOCK.c     ****         	*(t_reg32*)REG_CLK_IMO_TRIM1 = (t_uint32)t_imoTrim1Value;
 518              		.loc 1 201 0
 519 011a 194B     		ldr	r3, .L22+64
 520 011c 1A60     		str	r2, [r3]
 202:t_CLOCK.c     ****        		*(t_reg32*)REG_PWR_BG_TRIM4 = t_bgtrim4;
 521              		.loc 1 202 0
 522 011e 194B     		ldr	r3, .L22+68
 523 0120 1D60     		str	r5, [r3]
 203:t_CLOCK.c     ****         	*(t_reg32*)REG_PWR_BR_TRIM5 = t_bgtrim5;    
ARM GAS  C:\Users\mahe\AppData\Local\Temp\ccFoSfBB.s 			page 14


 524              		.loc 1 203 0
 525 0122 194B     		ldr	r3, .L22+72
 526 0124 1F60     		str	r7, [r3]
 527              	.LVL53:
 528              	.L14:
 204:t_CLOCK.c     ****         }
 205:t_CLOCK.c     **** 	}
 206:t_CLOCK.c     **** 	//input frequency t_freq to MHz value
 207:t_CLOCK.c     **** 	t_sys_freq = t_freq * 1000000;
 529              		.loc 1 207 0
 530 0126 194B     		ldr	r3, .L22+76
 531 0128 5C43     		muls	r4, r3
 532 012a 134B     		ldr	r3, .L22+56
 533 012c 1C60     		str	r4, [r3]
 208:t_CLOCK.c     **** 	
 209:t_CLOCK.c     **** 	t_ExitCriticalSection(t_interruptstate);
 534              		.loc 1 209 0
 535 012e 0198     		ldr	r0, [sp, #4]
 536 0130 FFF7FEFF 		bl	t_ExitCriticalSection
 537              	.LVL54:
 210:t_CLOCK.c     **** }
 538              		.loc 1 210 0
 539 0134 03B0     		add	sp, sp, #12
 540              		@ sp needed
 541 0136 0CBC     		pop	{r2, r3}
 542 0138 9146     		mov	r9, r2
 543 013a 9A46     		mov	r10, r3
 544 013c F0BD     		pop	{r4, r5, r6, r7, pc}
 545              	.L23:
 546 013e C046     		.align	2
 547              	.L22:
 548 0140 C0F1FF0F 		.word	268431808
 549 0144 C1F1FF0F 		.word	268431809
 550 0148 C2F1FF0F 		.word	268431810
 551 014c C3F1FF0F 		.word	268431811
 552 0150 C4F1FF0F 		.word	268431812
 553 0154 C5F1FF0F 		.word	268431813
 554 0158 C6F1FF0F 		.word	268431814
 555 015c C7F1FF0F 		.word	268431815
 556 0160 C8F1FF0F 		.word	268431816
 557 0164 C9F1FF0F 		.word	268431817
 558 0168 CAF1FF0F 		.word	268431818
 559 016c CBF1FF0F 		.word	268431819
 560 0170 CCF1FF0F 		.word	268431820
 561 0174 CDF1FF0F 		.word	268431821
 562 0178 00000000 		.word	.LANCHOR0
 563 017c 2CFF0B40 		.word	1074528044
 564 0180 28FF0B40 		.word	1074528040
 565 0184 1CFF0B40 		.word	1074528028
 566 0188 20FF0B40 		.word	1074528032
 567 018c 40420F00 		.word	1000000
 568              		.cfi_endproc
 569              	.LFE6:
 570              		.size	t_ClkWriteImoFreq, .-t_ClkWriteImoFreq
 571              		.global	t_ImoFreqMhz2Reg
 572              		.global	t_sys_freq
 573              		.section	.rodata
ARM GAS  C:\Users\mahe\AppData\Local\Temp\ccFoSfBB.s 			page 15


 574              		.align	2
 575              		.set	.LANCHOR1,. + 0
 576              	.LC0:
 577 0000 01       		.byte	1
 578 0001 02       		.byte	2
 579 0002 04       		.byte	4
 580 0003 08       		.byte	8
 581 0004 10       		.byte	16
 582 0005 20       		.byte	32
 583 0006 40       		.byte	64
 584 0007 80       		.byte	-128
 585              		.data
 586              		.align	2
 587              		.set	.LANCHOR0,. + 0
 588              		.type	t_sys_freq, %object
 589              		.size	t_sys_freq, 4
 590              	t_sys_freq:
 591 0000 006CDC02 		.word	48000000
 592              		.type	t_ImoFreqMhz2Reg, %object
 593              		.size	t_ImoFreqMhz2Reg, 46
 594              	t_ImoFreqMhz2Reg:
 595 0004 03       		.byte	3
 596 0005 04       		.byte	4
 597 0006 05       		.byte	5
 598 0007 06       		.byte	6
 599 0008 07       		.byte	7
 600 0009 08       		.byte	8
 601 000a 09       		.byte	9
 602 000b 0A       		.byte	10
 603 000c 0B       		.byte	11
 604 000d 0C       		.byte	12
 605 000e 0E       		.byte	14
 606 000f 0F       		.byte	15
 607 0010 10       		.byte	16
 608 0011 11       		.byte	17
 609 0012 12       		.byte	18
 610 0013 13       		.byte	19
 611 0014 14       		.byte	20
 612 0015 15       		.byte	21
 613 0016 16       		.byte	22
 614 0017 17       		.byte	23
 615 0018 18       		.byte	24
 616 0019 19       		.byte	25
 617 001a 1B       		.byte	27
 618 001b 1C       		.byte	28
 619 001c 1D       		.byte	29
 620 001d 1E       		.byte	30
 621 001e 1F       		.byte	31
 622 001f 20       		.byte	32
 623 0020 21       		.byte	33
 624 0021 22       		.byte	34
 625 0022 23       		.byte	35
 626 0023 25       		.byte	37
 627 0024 26       		.byte	38
 628 0025 27       		.byte	39
 629 0026 28       		.byte	40
 630 0027 29       		.byte	41
ARM GAS  C:\Users\mahe\AppData\Local\Temp\ccFoSfBB.s 			page 16


 631 0028 2A       		.byte	42
 632 0029 2B       		.byte	43
 633 002a 2E       		.byte	46
 634 002b 2F       		.byte	47
 635 002c 30       		.byte	48
 636 002d 31       		.byte	49
 637 002e 32       		.byte	50
 638 002f 33       		.byte	51
 639 0030 34       		.byte	52
 640 0031 35       		.byte	53
 641              		.text
 642              	.Letext0:
 643              		.file 2 "t_udtypes.h"