ARM GAS  C:\Users\Mahe\AppData\Local\Temp\cct4QpO1.s 			page 1


   1              		.syntax unified
   2              		.cpu cortex-m0
   3              		.fpu softvfp
   4              		.eabi_attribute 20, 1
   5              		.eabi_attribute 21, 1
   6              		.eabi_attribute 23, 3
   7              		.eabi_attribute 24, 1
   8              		.eabi_attribute 25, 1
   9              		.eabi_attribute 26, 1
  10              		.eabi_attribute 30, 1
  11              		.eabi_attribute 34, 0
  12              		.eabi_attribute 18, 4
  13              		.thumb
  14              		.syntax unified
  15              		.file	"main.c"
  16              		.text
  17              	.Ltext0:
  18              		.cfi_sections	.debug_frame
  19              		.section	.text.Timer_1_ISR,"ax",%progbits
  20              		.align	2
  21              		.global	Timer_1_ISR
  22              		.code	16
  23              		.thumb_func
  24              		.type	Timer_1_ISR, %function
  25              	Timer_1_ISR:
  26              	.LFB35:
  27              		.file 1 "main.c"
   1:main.c        **** /* ========================================
   2:main.c        ****  *
   3:main.c        ****  * Copyright YOUR COMPANY, THE YEAR
   4:main.c        ****  * All Rights Reserved
   5:main.c        ****  * UNPUBLISHED, LICENSED SOFTWARE.
   6:main.c        ****  *
   7:main.c        ****  * CONFIDENTIAL AND PROPRIETARY INFORMATION
   8:main.c        ****  * WHICH IS THE PROPERTY OF your company.
   9:main.c        ****  *
  10:main.c        ****  * ========================================
  11:main.c        **** */
  12:main.c        **** #include "project.h"
  13:main.c        **** 
  14:main.c        **** int main(void)
  15:main.c        **** {
  16:main.c        ****     CyGlobalIntEnable; /* Enable global interrupts. */
  17:main.c        ****     Timer_1_Start();
  18:main.c        ****     Timer_2_Start();
  19:main.c        ****     
  20:main.c        ****     CY_ISR_PROTO(Timer_1_ISR);
  21:main.c        ****     CY_ISR_PROTO(Timer_2_ISR);
  22:main.c        ****     
  23:main.c        ****     isr_1_StartEx(Timer_1_ISR);
  24:main.c        ****     isr_2_StartEx(Timer_2_ISR);
  25:main.c        ****     /* Place your initialization/startup code here (e.g. MyInst_Start()) */
  26:main.c        **** 
  27:main.c        ****     for(;;)
  28:main.c        ****     {
  29:main.c        ****         /* Place your application code here. */
  30:main.c        ****     }
ARM GAS  C:\Users\Mahe\AppData\Local\Temp\cct4QpO1.s 			page 2


  31:main.c        **** }
  32:main.c        **** 
  33:main.c        **** CY_ISR(Timer_1_ISR)
  34:main.c        **** {
  28              		.loc 1 34 0
  29              		.cfi_startproc
  30              		@ args = 0, pretend = 0, frame = 0
  31              		@ frame_needed = 0, uses_anonymous_args = 0
  32 0000 10B5     		push	{r4, lr}
  33              		.cfi_def_cfa_offset 8
  34              		.cfi_offset 4, -8
  35              		.cfi_offset 14, -4
  35:main.c        ****     Timer_1_ClearInterrupt(Timer_1_TC_INTERRUPT_MASK);
  36              		.loc 1 35 0
  37 0002 0120     		movs	r0, #1
  38 0004 FFF7FEFF 		bl	Timer_1_ClearInterrupt
  39              	.LVL0:
  36:main.c        ****     RED_LED_Write(0);
  40              		.loc 1 36 0
  41 0008 0020     		movs	r0, #0
  42 000a FFF7FEFF 		bl	RED_LED_Write
  43              	.LVL1:
  37:main.c        ****     CyDelay(500);
  44              		.loc 1 37 0
  45 000e FA20     		movs	r0, #250
  46 0010 4000     		lsls	r0, r0, #1
  47 0012 FFF7FEFF 		bl	CyDelay
  48              	.LVL2:
  38:main.c        ****     RED_LED_Write(1);
  49              		.loc 1 38 0
  50 0016 0120     		movs	r0, #1
  51 0018 FFF7FEFF 		bl	RED_LED_Write
  52              	.LVL3:
  39:main.c        **** }
  53              		.loc 1 39 0
  54              		@ sp needed
  55 001c 10BD     		pop	{r4, pc}
  56              		.cfi_endproc
  57              	.LFE35:
  58              		.size	Timer_1_ISR, .-Timer_1_ISR
  59 001e C046     		.section	.text.Timer_2_ISR,"ax",%progbits
  60              		.align	2
  61              		.global	Timer_2_ISR
  62              		.code	16
  63              		.thumb_func
  64              		.type	Timer_2_ISR, %function
  65              	Timer_2_ISR:
  66              	.LFB36:
  40:main.c        **** 
  41:main.c        **** CY_ISR(Timer_2_ISR)
  42:main.c        **** {
  67              		.loc 1 42 0
  68              		.cfi_startproc
  69              		@ args = 0, pretend = 0, frame = 0
  70              		@ frame_needed = 0, uses_anonymous_args = 0
  71 0000 10B5     		push	{r4, lr}
  72              		.cfi_def_cfa_offset 8
ARM GAS  C:\Users\Mahe\AppData\Local\Temp\cct4QpO1.s 			page 3


  73              		.cfi_offset 4, -8
  74              		.cfi_offset 14, -4
  43:main.c        ****     Timer_2_ClearInterrupt(Timer_2_TC_INTERRUPT_MASK);
  75              		.loc 1 43 0
  76 0002 0120     		movs	r0, #1
  77 0004 FFF7FEFF 		bl	Timer_2_ClearInterrupt
  78              	.LVL4:
  44:main.c        ****     GREEN_LED_Write(0);
  79              		.loc 1 44 0
  80 0008 0020     		movs	r0, #0
  81 000a FFF7FEFF 		bl	GREEN_LED_Write
  82              	.LVL5:
  45:main.c        ****     CyDelay(500);
  83              		.loc 1 45 0
  84 000e FA20     		movs	r0, #250
  85 0010 4000     		lsls	r0, r0, #1
  86 0012 FFF7FEFF 		bl	CyDelay
  87              	.LVL6:
  46:main.c        ****     GREEN_LED_Write(1);
  88              		.loc 1 46 0
  89 0016 0120     		movs	r0, #1
  90 0018 FFF7FEFF 		bl	GREEN_LED_Write
  91              	.LVL7:
  47:main.c        **** }
  92              		.loc 1 47 0
  93              		@ sp needed
  94 001c 10BD     		pop	{r4, pc}
  95              		.cfi_endproc
  96              	.LFE36:
  97              		.size	Timer_2_ISR, .-Timer_2_ISR
  98 001e C046     		.section	.text.main,"ax",%progbits
  99              		.align	2
 100              		.global	main
 101              		.code	16
 102              		.thumb_func
 103              		.type	main, %function
 104              	main:
 105              	.LFB34:
  15:main.c        ****     CyGlobalIntEnable; /* Enable global interrupts. */
 106              		.loc 1 15 0
 107              		.cfi_startproc
 108              		@ Volatile: function does not return.
 109              		@ args = 0, pretend = 0, frame = 0
 110              		@ frame_needed = 0, uses_anonymous_args = 0
 111 0000 10B5     		push	{r4, lr}
 112              		.cfi_def_cfa_offset 8
 113              		.cfi_offset 4, -8
 114              		.cfi_offset 14, -4
  16:main.c        ****     Timer_1_Start();
 115              		.loc 1 16 0
 116              		.syntax divided
 117              	@ 16 "main.c" 1
 118 0002 62B6     		CPSIE   i
 119              	@ 0 "" 2
  17:main.c        ****     Timer_2_Start();
 120              		.loc 1 17 0
 121              		.thumb
ARM GAS  C:\Users\Mahe\AppData\Local\Temp\cct4QpO1.s 			page 4


 122              		.syntax unified
 123 0004 FFF7FEFF 		bl	Timer_1_Start
 124              	.LVL8:
  18:main.c        ****     
 125              		.loc 1 18 0
 126 0008 FFF7FEFF 		bl	Timer_2_Start
 127              	.LVL9:
  23:main.c        ****     isr_2_StartEx(Timer_2_ISR);
 128              		.loc 1 23 0
 129 000c 0348     		ldr	r0, .L5
 130 000e FFF7FEFF 		bl	isr_1_StartEx
 131              	.LVL10:
  24:main.c        ****     /* Place your initialization/startup code here (e.g. MyInst_Start()) */
 132              		.loc 1 24 0
 133 0012 0348     		ldr	r0, .L5+4
 134 0014 FFF7FEFF 		bl	isr_2_StartEx
 135              	.LVL11:
 136              	.L4:
 137 0018 FEE7     		b	.L4
 138              	.L6:
 139 001a C046     		.align	2
 140              	.L5:
 141 001c 00000000 		.word	Timer_1_ISR
 142 0020 00000000 		.word	Timer_2_ISR
 143              		.cfi_endproc
 144              	.LFE34:
 145              		.size	main, .-main
 146              		.text
 147              	.Letext0:
 148              		.file 2 "Generated_Source\\PSoC4/Timer_1.h"
 149              		.file 3 "Generated_Source\\PSoC4/RED_LED.h"
 150              		.file 4 "Generated_Source\\PSoC4/CyLib.h"
 151              		.file 5 "Generated_Source\\PSoC4/Timer_2.h"
 152              		.file 6 "Generated_Source\\PSoC4/GREEN_LED.h"
 153              		.file 7 "Generated_Source\\PSoC4/isr_1.h"
 154              		.file 8 "Generated_Source\\PSoC4/isr_2.h"