ARM GAS  C:\Users\Mahe\AppData\Local\Temp\ccS5dkAx.s 			page 1


   1              		.syntax unified
   2              		.cpu cortex-m0
   3              		.fpu softvfp
   4              		.eabi_attribute 20, 1
   5              		.eabi_attribute 21, 1
   6              		.eabi_attribute 23, 3
   7              		.eabi_attribute 24, 1
   8              		.eabi_attribute 25, 1
   9              		.eabi_attribute 26, 1
  10              		.eabi_attribute 30, 1
  11              		.eabi_attribute 34, 0
  12              		.eabi_attribute 18, 4
  13              		.thumb
  14              		.syntax unified
  15              		.file	"main.c"
  16              		.text
  17              	.Ltext0:
  18              		.cfi_sections	.debug_frame
  19              		.section	.text.IND_ISR,"ax",%progbits
  20              		.align	2
  21              		.global	IND_ISR
  22              		.code	16
  23              		.thumb_func
  24              		.type	IND_ISR, %function
  25              	IND_ISR:
  26              	.LFB35:
  27              		.file 1 "main.c"
   1:main.c        **** #include <project.h>
   2:main.c        **** CY_ISR_PROTO(IND_ISR);
   3:main.c        **** int main()
   4:main.c        **** {   
   5:main.c        ****     CyGlobalIntEnable; /* Enable global interrupts. */
   6:main.c        ****     TCPWM_Start();
   7:main.c        ****     isr_1_StartEx(IND_ISR);
   8:main.c        ****     uint8 InterruptState;
   9:main.c        **** for(;;)
  10:main.c        ****     {    
  11:main.c        ****         InterruptState=CyEnterCriticalSection();
  12:main.c        ****         Pin_LED_Write(0);
  13:main.c        ****         CyDelay(5200);
  14:main.c        ****         CyExitCriticalSection(InterruptState);
  15:main.c        ****         Pin_LED_Write(1);
  16:main.c        ****         CyDelay(5200);
  17:main.c        ****     }
  18:main.c        **** }
  19:main.c        **** 
  20:main.c        **** CY_ISR(IND_ISR)
  21:main.c        **** {
  28              		.loc 1 21 0
  29              		.cfi_startproc
  30              		@ args = 0, pretend = 0, frame = 0
  31              		@ frame_needed = 0, uses_anonymous_args = 0
  32 0000 10B5     		push	{r4, lr}
  33              		.cfi_def_cfa_offset 8
  34              		.cfi_offset 4, -8
  35              		.cfi_offset 14, -4
  22:main.c        ****     TCPWM_ClearInterrupt(TCPWM_INTR_MASK_TC);
ARM GAS  C:\Users\Mahe\AppData\Local\Temp\ccS5dkAx.s 			page 2


  36              		.loc 1 22 0
  37 0002 0120     		movs	r0, #1
  38 0004 FFF7FEFF 		bl	TCPWM_ClearInterrupt
  39              	.LVL0:
  23:main.c        ****     Pin_LED_1_Write(0);
  40              		.loc 1 23 0
  41 0008 0020     		movs	r0, #0
  42 000a FFF7FEFF 		bl	Pin_LED_1_Write
  43              	.LVL1:
  24:main.c        ****     CyDelay(500);
  44              		.loc 1 24 0
  45 000e FA20     		movs	r0, #250
  46 0010 4000     		lsls	r0, r0, #1
  47 0012 FFF7FEFF 		bl	CyDelay
  48              	.LVL2:
  25:main.c        ****     Pin_LED_1_Write(1);
  49              		.loc 1 25 0
  50 0016 0120     		movs	r0, #1
  51 0018 FFF7FEFF 		bl	Pin_LED_1_Write
  52              	.LVL3:
  26:main.c        ****     
  27:main.c        **** }...
  53              		.loc 1 27 0
  54              		@ sp needed
  55 001c 10BD     		pop	{r4, pc}
  56              		.cfi_endproc
  57              	.LFE35:
  58              		.size	IND_ISR, .-IND_ISR
  59 001e C046     		.section	.text.main,"ax",%progbits
  60              		.align	2
  61              		.global	main
  62              		.code	16
  63              		.thumb_func
  64              		.type	main, %function
  65              	main:
  66              	.LFB34:
   4:main.c        **** {   
  67              		.loc 1 4 0
  68              		.cfi_startproc
  69              		@ args = 0, pretend = 0, frame = 0
  70              		@ frame_needed = 0, uses_anonymous_args = 0
  71 0000 70B5     		push	{r4, r5, r6, lr}
  72              		.cfi_def_cfa_offset 16
  73              		.cfi_offset 4, -16
  74              		.cfi_offset 5, -12
  75              		.cfi_offset 6, -8
  76              		.cfi_offset 14, -4
   5:main.c        ****     CyGlobalIntEnable; /* Enable global interrupts. */
  77              		.loc 1 5 0
  78              		.syntax divided
  79              	@ 5 "main.c" 1
  80 0002 62B6     		CPSIE   i
  81              	@ 0 "" 2
   6:main.c        ****     TCPWM_Start();
  82              		.loc 1 6 0
  83              		.thumb
  84              		.syntax unified
ARM GAS  C:\Users\Mahe\AppData\Local\Temp\ccS5dkAx.s 			page 3


  85 0004 FFF7FEFF 		bl	TCPWM_Start
  86              	.LVL4:
   7:main.c        ****     isr_1_StartEx(IND_ISR);
  87              		.loc 1 7 0
  88 0008 0B48     		ldr	r0, .L4
  89 000a FFF7FEFF 		bl	isr_1_StartEx
  90              	.LVL5:
  91              	.L3:
  11:main.c        ****         InterruptState=CyEnterCriticalSection();
  92              		.loc 1 11 0 discriminator 1
  93 000e FFF7FEFF 		bl	CyEnterCriticalSection
  94              	.LVL6:
  95 0012 0500     		movs	r5, r0
  96              	.LVL7:
  12:main.c        ****         Pin_LED_Write(0);
  97              		.loc 1 12 0 discriminator 1
  98 0014 0020     		movs	r0, #0
  99 0016 FFF7FEFF 		bl	Pin_LED_Write
 100              	.LVL8:
  13:main.c        ****         CyDelay(5200);
 101              		.loc 1 13 0 discriminator 1
 102 001a 084C     		ldr	r4, .L4+4
 103 001c 2000     		movs	r0, r4
 104 001e FFF7FEFF 		bl	CyDelay
 105              	.LVL9:
  14:main.c        ****         CyExitCriticalSection(InterruptState);
 106              		.loc 1 14 0 discriminator 1
 107 0022 2800     		movs	r0, r5
 108 0024 FFF7FEFF 		bl	CyExitCriticalSection
 109              	.LVL10:
  15:main.c        ****         Pin_LED_Write(1);
 110              		.loc 1 15 0 discriminator 1
 111 0028 0120     		movs	r0, #1
 112 002a FFF7FEFF 		bl	Pin_LED_Write
 113              	.LVL11:
  16:main.c        ****         CyDelay(5200);
 114              		.loc 1 16 0 discriminator 1
 115 002e 2000     		movs	r0, r4
 116 0030 FFF7FEFF 		bl	CyDelay
 117              	.LVL12:
 118 0034 EBE7     		b	.L3
 119              	.L5:
 120 0036 C046     		.align	2
 121              	.L4:
 122 0038 00000000 		.word	IND_ISR
 123 003c 50140000 		.word	5200
 124              		.cfi_endproc
 125              	.LFE34:
 126              		.size	main, .-main
 127              		.text
 128              	.Letext0:
 129              		.file 2 "Generated_Source\\PSoC4/cytypes.h"
 130              		.file 3 "Generated_Source\\PSoC4/TCPWM.h"
 131              		.file 4 "Generated_Source\\PSoC4/Pin_LED_1.h"
 132              		.file 5 "Generated_Source\\PSoC4/CyLib.h"
 133              		.file 6 "Generated_Source\\PSoC4/isr_1.h"
 134              		.file 7 "Generated_Source\\PSoC4/Pin_LED.h"
ARM GAS  C:\Users\Mahe\AppData\Local\Temp\ccS5dkAx.s 			page 4

