ARM GAS  C:\Users\Mahe\AppData\Local\Temp\ccD8U4y2.s 			page 1


   1              		.syntax unified
   2              		.cpu cortex-m0
   3              		.fpu softvfp
   4              		.eabi_attribute 20, 1
   5              		.eabi_attribute 21, 1
   6              		.eabi_attribute 23, 3
   7              		.eabi_attribute 24, 1
   8              		.eabi_attribute 25, 1
   9              		.eabi_attribute 26, 1
  10              		.eabi_attribute 30, 1
  11              		.eabi_attribute 34, 0
  12              		.eabi_attribute 18, 4
  13              		.thumb
  14              		.syntax unified
  15              		.file	"main.c"
  16              		.text
  17              	.Ltext0:
  18              		.cfi_sections	.debug_frame
  19              		.section	.text.Timer_ISR,"ax",%progbits
  20              		.align	2
  21              		.global	Timer_ISR
  22              		.code	16
  23              		.thumb_func
  24              		.type	Timer_ISR, %function
  25              	Timer_ISR:
  26              	.LFB35:
  27              		.file 1 "main.c"
   1:main.c        **** /* ========================================
   2:main.c        ****  *
   3:main.c        ****  * Copyright YOUR COMPANY, THE YEAR
   4:main.c        ****  * All Rights Reserved
   5:main.c        ****  * UNPUBLISHED, LICENSED SOFTWARE.
   6:main.c        ****  *
   7:main.c        ****  * CONFIDENTIAL AND PROPRIETARY INFORMATION
   8:main.c        ****  * WHICH IS THE PROPERTY OF your company.
   9:main.c        ****  *
  10:main.c        ****  * ========================================
  11:main.c        **** */
  12:main.c        **** #include "project.h"
  13:main.c        **** 
  14:main.c        **** int main(void)
  15:main.c        **** {
  16:main.c        ****     CyGlobalIntEnable; /* Enable global interrupts. */
  17:main.c        ****     Timer_Start();
  18:main.c        ****     CY_ISR_PROTO(Timer_ISR);
  19:main.c        ****     isr_StartEx(Timer_ISR);
  20:main.c        ****     /* Place your initialization/startup code here (e.g. MyInst_Start()) */
  21:main.c        **** 
  22:main.c        ****     for(;;)
  23:main.c        ****     {
  24:main.c        ****         /* Place your application code here. */
  25:main.c        ****     }
  26:main.c        **** }
  27:main.c        **** CY_ISR(Timer_ISR)
  28:main.c        **** {
  28              		.loc 1 28 0
  29              		.cfi_startproc
ARM GAS  C:\Users\Mahe\AppData\Local\Temp\ccD8U4y2.s 			page 2


  30              		@ args = 0, pretend = 0, frame = 0
  31              		@ frame_needed = 0, uses_anonymous_args = 0
  32 0000 10B5     		push	{r4, lr}
  33              		.cfi_def_cfa_offset 8
  34              		.cfi_offset 4, -8
  35              		.cfi_offset 14, -4
  29:main.c        ****     Timer_ClearInterrupt(Timer_TC_INTERRUPT_MASK);
  36              		.loc 1 29 0
  37 0002 0120     		movs	r0, #1
  38 0004 FFF7FEFF 		bl	Timer_ClearInterrupt
  39              	.LVL0:
  30:main.c        ****     GREEN_LED_Write(~GREEN_LED_Read());
  40              		.loc 1 30 0
  41 0008 FFF7FEFF 		bl	GREEN_LED_Read
  42              	.LVL1:
  43 000c C043     		mvns	r0, r0
  44 000e C0B2     		uxtb	r0, r0
  45 0010 FFF7FEFF 		bl	GREEN_LED_Write
  46              	.LVL2:
  31:main.c        **** }
  47              		.loc 1 31 0
  48              		@ sp needed
  49 0014 10BD     		pop	{r4, pc}
  50              		.cfi_endproc
  51              	.LFE35:
  52              		.size	Timer_ISR, .-Timer_ISR
  53 0016 C046     		.section	.text.main,"ax",%progbits
  54              		.align	2
  55              		.global	main
  56              		.code	16
  57              		.thumb_func
  58              		.type	main, %function
  59              	main:
  60              	.LFB34:
  15:main.c        ****     CyGlobalIntEnable; /* Enable global interrupts. */
  61              		.loc 1 15 0
  62              		.cfi_startproc
  63              		@ Volatile: function does not return.
  64              		@ args = 0, pretend = 0, frame = 0
  65              		@ frame_needed = 0, uses_anonymous_args = 0
  66 0000 10B5     		push	{r4, lr}
  67              		.cfi_def_cfa_offset 8
  68              		.cfi_offset 4, -8
  69              		.cfi_offset 14, -4
  16:main.c        ****     Timer_Start();
  70              		.loc 1 16 0
  71              		.syntax divided
  72              	@ 16 "main.c" 1
  73 0002 62B6     		CPSIE   i
  74              	@ 0 "" 2
  17:main.c        ****     CY_ISR_PROTO(Timer_ISR);
  75              		.loc 1 17 0
  76              		.thumb
  77              		.syntax unified
  78 0004 FFF7FEFF 		bl	Timer_Start
  79              	.LVL3:
  19:main.c        ****     /* Place your initialization/startup code here (e.g. MyInst_Start()) */
ARM GAS  C:\Users\Mahe\AppData\Local\Temp\ccD8U4y2.s 			page 3


  80              		.loc 1 19 0
  81 0008 0148     		ldr	r0, .L4
  82 000a FFF7FEFF 		bl	isr_StartEx
  83              	.LVL4:
  84              	.L3:
  85 000e FEE7     		b	.L3
  86              	.L5:
  87              		.align	2
  88              	.L4:
  89 0010 00000000 		.word	Timer_ISR
  90              		.cfi_endproc
  91              	.LFE34:
  92              		.size	main, .-main
  93              		.text
  94              	.Letext0:
  95              		.file 2 "Generated_Source\\PSoC4/Timer.h"
  96              		.file 3 "Generated_Source\\PSoC4/GREEN_LED.h"
  97              		.file 4 "Generated_Source\\PSoC4/isr.h"