ARM GAS  C:\Users\mahe\AppData\Local\Temp\ccyCzakR.s 			page 1


   1              		.syntax unified
   2              		.cpu cortex-m0
   3              		.fpu softvfp
   4              		.eabi_attribute 20, 1
   5              		.eabi_attribute 21, 1
   6              		.eabi_attribute 23, 3
   7              		.eabi_attribute 24, 1
   8              		.eabi_attribute 25, 1
   9              		.eabi_attribute 26, 1
  10              		.eabi_attribute 30, 1
  11              		.eabi_attribute 34, 0
  12              		.eabi_attribute 18, 4
  13              		.thumb
  14              		.syntax unified
  15              		.file	"main.c"
  16              		.text
  17              	.Ltext0:
  18              		.cfi_sections	.debug_frame
  19              		.section	.text.t_WDT_ISR,"ax",%progbits
  20              		.align	2
  21              		.global	t_WDT_ISR
  22              		.code	16
  23              		.thumb_func
  24              		.type	t_WDT_ISR, %function
  25              	t_WDT_ISR:
  26              	.LFB1:
  27              		.file 1 "main.c"
   1:main.c        **** #include "t_INTR.h"
   2:main.c        **** #include "t_udtypes.h"
   3:main.c        **** #include "t_GPIO.h"
   4:main.c        **** #include "t_WDT.h"
   5:main.c        **** #include "t_CLOCK.h"
   6:main.c        **** 
   7:main.c        **** void t_WDT_ISR(void);
   8:main.c        **** 
   9:main.c        **** int main()
  10:main.c        **** {
  11:main.c        **** 	
  12:main.c        **** 	t_ClkWriteImoFreq(48);
  13:main.c        **** 	t_ClkWriteHfclkDirect(0);
  14:main.c        **** 	t_ClkWriteSysClkDiv(0);
  15:main.c        **** 	
  16:main.c        **** 	asm("CPSIE   i");
  17:main.c        **** 	INT_Disable(IRQ7);
  18:main.c        **** 	INT_Set_ISR_Address(IRQ7,(t_uint32)t_WDT_ISR);
  19:main.c        **** 	GPIO_SET_MODE(GPIO_PRT0_PC, 6, GPIO_DM_STRONG);
  20:main.c        **** 	GPIO_SET_MODE(GPIO_PRT2_PC, 6, GPIO_DM_STRONG);
  21:main.c        **** 	GPIO_SET_MODE(GPIO_PRT6_PC, 5, GPIO_DM_STRONG);
  22:main.c        **** 	GPIO_WRITE_PIN(GPIO_PRT0_DR, 6, 1);
  23:main.c        **** 	GPIO_WRITE_PIN(GPIO_PRT2_DR, 6, 1);
  24:main.c        **** 	GPIO_WRITE_PIN(GPIO_PRT6_DR, 5, 1);
  25:main.c        **** 	
  26:main.c        **** 	
  27:main.c        **** 	if (t_GetResetReason(((t_uint32)1u <<0))==0)
  28:main.c        **** 	{
  29:main.c        **** 		/* Toggle LED_Reset at startup after PowerUp/XRES event. */
  30:main.c        **** 		GPIO_WRITE_PIN(GPIO_PRT0_DR, 6, 0);            //RED
ARM GAS  C:\Users\mahe\AppData\Local\Temp\ccyCzakR.s 			page 2


  31:main.c        **** 		t_Delay_ms(500);
  32:main.c        **** 		//CyDelay(500)
  33:main.c        **** 		GPIO_WRITE_PIN(GPIO_PRT0_DR, 6, 1);
  34:main.c        **** 	}
  35:main.c        **** 	
  36:main.c        **** 	else
  37:main.c        **** 	{
  38:main.c        **** 	/* Toggle LED_WdtReset at startup after WDT reset event. */
  39:main.c        **** 		GPIO_WRITE_PIN(GPIO_PRT6_DR, 5, 0);        //GREEN
  40:main.c        **** 		t_Delay_ms(500);
  41:main.c        **** 		//CyDelay(100);
  42:main.c        **** 		GPIO_WRITE_PIN(GPIO_PRT6_DR, 5, 1);
  43:main.c        **** 	}
  44:main.c        **** 
  45:main.c        **** 	/* Set WDT counter 0 to generate interrupt on match */
  46:main.c        **** 	t_WDT_SetMode(0, 1);
  47:main.c        **** 	
  48:main.c        **** 	/* Loading Match Value of 0x4FFF 
  49:main.c        **** 	 * 0x4FFF * (1/32k)
  50:main.c        **** 	 */
  51:main.c        **** 	t_WDT_SetMatch(0, 0x4FFF);
  52:main.c        **** 	
  53:main.c        **** 	/* Clear Counter on Match */
  54:main.c        **** 	t_WDT_SetClearOnMatch(0, 1);
  55:main.c        **** 
  56:main.c        **** 	/* Enable WDT counters 0 and 1 cascade */
  57:main.c        **** 	t_WDT_SetCascade(((t_uint32)0x01u << 3u));
  58:main.c        **** 
  59:main.c        **** 	/* Set WDT counter 1 to generate reset on match */
  60:main.c        **** 	t_WDT_SetMatch(1,0x0008);
  61:main.c        **** 
  62:main.c        **** 	/* Set Mode for counter 1 */
  63:main.c        **** 	t_WDT_SetMode(1, 2);
  64:main.c        **** 
  65:main.c        **** 	/*  */
  66:main.c        **** 	t_WDT_SetClearOnMatch(1, 1);
  67:main.c        **** 	
  68:main.c        **** 	
  69:main.c        **** 	/* Enable WDT counters 0 and 1 */
  70:main.c        **** 	t_WDT_Enable((t_uint32)0x01 | ((t_uint32)(1UL<<8)));
  71:main.c        **** 	INT_Enable(IRQ7);	
  72:main.c        **** 	for(;;)
  73:main.c        **** 	{
  74:main.c        **** 
  75:main.c        **** 	}
  76:main.c        **** }
  77:main.c        **** 
  78:main.c        **** void t_WDT_ISR (void)
  79:main.c        **** {
  28              		.loc 1 79 0
  29              		.cfi_startproc
  30              		@ args = 0, pretend = 0, frame = 0
  31              		@ frame_needed = 0, uses_anonymous_args = 0
  32 0000 10B5     		push	{r4, lr}
  33              		.cfi_def_cfa_offset 8
  34              		.cfi_offset 4, -8
  35              		.cfi_offset 14, -4
ARM GAS  C:\Users\mahe\AppData\Local\Temp\ccyCzakR.s 			page 3


  80:main.c        **** 	/* Toggle pin state */
  81:main.c        **** 	GPIO_WRITE_PIN(GPIO_PRT2_DR, 6, ~GPIO_READ_PIN(GPIO_PRT2_PS, 6));; //GREEN
  36              		.loc 1 81 0
  37 0002 0948     		ldr	r0, .L2
  38 0004 0168     		ldr	r1, [r0]
  39 0006 4023     		movs	r3, #64
  40 0008 9943     		bics	r1, r3
  41 000a 084A     		ldr	r2, .L2+4
  42 000c 1268     		ldr	r2, [r2]
  43 000e 9209     		lsrs	r2, r2, #6
  44 0010 0124     		movs	r4, #1
  45 0012 2240     		ands	r2, r4
  46 0014 D243     		mvns	r2, r2
  47 0016 9201     		lsls	r2, r2, #6
  48 0018 1340     		ands	r3, r2
  49 001a 0B43     		orrs	r3, r1
  50 001c 0360     		str	r3, [r0]
  82:main.c        **** 
  83:main.c        **** 	/* Clear interrupts state */
  84:main.c        **** 	t_WDT_ClearInterrupt(((t_uint32)0x01u << 2u));
  51              		.loc 1 84 0
  52 001e 0420     		movs	r0, #4
  53 0020 FFF7FEFF 		bl	t_WDT_ClearInterrupt
  54              	.LVL0:
  85:main.c        **** 
  86:main.c        **** }
  55              		.loc 1 86 0
  56              		@ sp needed
  57 0024 10BD     		pop	{r4, pc}
  58              	.L3:
  59 0026 C046     		.align	2
  60              	.L2:
  61 0028 00020440 		.word	1074004480
  62 002c 04020440 		.word	1074004484
  63              		.cfi_endproc
  64              	.LFE1:
  65              		.size	t_WDT_ISR, .-t_WDT_ISR
  66              		.section	.text.main,"ax",%progbits
  67              		.align	2
  68              		.global	main
  69              		.code	16
  70              		.thumb_func
  71              		.type	main, %function
  72              	main:
  73              	.LFB0:
  10:main.c        **** 	
  74              		.loc 1 10 0
  75              		.cfi_startproc
  76              		@ Volatile: function does not return.
  77              		@ args = 0, pretend = 0, frame = 0
  78              		@ frame_needed = 0, uses_anonymous_args = 0
  79 0000 70B5     		push	{r4, r5, r6, lr}
  80              		.cfi_def_cfa_offset 16
  81              		.cfi_offset 4, -16
  82              		.cfi_offset 5, -12
  83              		.cfi_offset 6, -8
  84              		.cfi_offset 14, -4
ARM GAS  C:\Users\mahe\AppData\Local\Temp\ccyCzakR.s 			page 4


  12:main.c        **** 	t_ClkWriteHfclkDirect(0);
  85              		.loc 1 12 0
  86 0002 3020     		movs	r0, #48
  87 0004 FFF7FEFF 		bl	t_ClkWriteImoFreq
  88              	.LVL1:
  13:main.c        **** 	t_ClkWriteSysClkDiv(0);
  89              		.loc 1 13 0
  90 0008 0020     		movs	r0, #0
  91 000a FFF7FEFF 		bl	t_ClkWriteHfclkDirect
  92              	.LVL2:
  14:main.c        **** 	
  93              		.loc 1 14 0
  94 000e 0020     		movs	r0, #0
  95 0010 FFF7FEFF 		bl	t_ClkWriteSysClkDiv
  96              	.LVL3:
  16:main.c        **** 	INT_Disable(IRQ7);
  97              		.loc 1 16 0
  98              		.syntax divided
  99              	@ 16 "main.c" 1
 100 0014 62B6     		CPSIE   i
 101              	@ 0 "" 2
  17:main.c        **** 	INT_Set_ISR_Address(IRQ7,(t_uint32)t_WDT_ISR);
 102              		.loc 1 17 0
 103              		.thumb
 104              		.syntax unified
 105 0016 0720     		movs	r0, #7
 106 0018 FFF7FEFF 		bl	INT_Disable
 107              	.LVL4:
  18:main.c        **** 	GPIO_SET_MODE(GPIO_PRT0_PC, 6, GPIO_DM_STRONG);
 108              		.loc 1 18 0
 109 001c 3349     		ldr	r1, .L8
 110 001e 0720     		movs	r0, #7
 111 0020 FFF7FEFF 		bl	INT_Set_ISR_Address
 112              	.LVL5:
  19:main.c        **** 	GPIO_SET_MODE(GPIO_PRT2_PC, 6, GPIO_DM_STRONG);
 113              		.loc 1 19 0
 114 0024 3248     		ldr	r0, .L8+4
 115 0026 0268     		ldr	r2, [r0]
 116 0028 324B     		ldr	r3, .L8+8
 117 002a 1A40     		ands	r2, r3
 118 002c C021     		movs	r1, #192
 119 002e 4903     		lsls	r1, r1, #13
 120 0030 0A43     		orrs	r2, r1
 121 0032 0260     		str	r2, [r0]
  20:main.c        **** 	GPIO_SET_MODE(GPIO_PRT6_PC, 5, GPIO_DM_STRONG);
 122              		.loc 1 20 0
 123 0034 304A     		ldr	r2, .L8+12
 124 0036 1068     		ldr	r0, [r2]
 125 0038 0340     		ands	r3, r0
 126 003a 0B43     		orrs	r3, r1
 127 003c 1360     		str	r3, [r2]
  21:main.c        **** 	GPIO_WRITE_PIN(GPIO_PRT0_DR, 6, 1);
 128              		.loc 1 21 0
 129 003e 2F4A     		ldr	r2, .L8+16
 130 0040 1168     		ldr	r1, [r2]
 131 0042 2F4B     		ldr	r3, .L8+20
 132 0044 0B40     		ands	r3, r1
ARM GAS  C:\Users\mahe\AppData\Local\Temp\ccyCzakR.s 			page 5


 133 0046 C021     		movs	r1, #192
 134 0048 8902     		lsls	r1, r1, #10
 135 004a 0B43     		orrs	r3, r1
 136 004c 1360     		str	r3, [r2]
  22:main.c        **** 	GPIO_WRITE_PIN(GPIO_PRT2_DR, 6, 1);
 137              		.loc 1 22 0
 138 004e 2D49     		ldr	r1, .L8+24
 139 0050 0A68     		ldr	r2, [r1]
 140 0052 4023     		movs	r3, #64
 141 0054 1A43     		orrs	r2, r3
 142 0056 0A60     		str	r2, [r1]
  23:main.c        **** 	GPIO_WRITE_PIN(GPIO_PRT6_DR, 5, 1);
 143              		.loc 1 23 0
 144 0058 2B4A     		ldr	r2, .L8+28
 145 005a 1168     		ldr	r1, [r2]
 146 005c 0B43     		orrs	r3, r1
 147 005e 1360     		str	r3, [r2]
  24:main.c        **** 	
 148              		.loc 1 24 0
 149 0060 2A4A     		ldr	r2, .L8+32
 150 0062 1168     		ldr	r1, [r2]
 151 0064 2023     		movs	r3, #32
 152 0066 0B43     		orrs	r3, r1
 153 0068 1360     		str	r3, [r2]
  27:main.c        **** 	{
 154              		.loc 1 27 0
 155 006a 0120     		movs	r0, #1
 156 006c FFF7FEFF 		bl	t_GetResetReason
 157              	.LVL6:
 158 0070 0028     		cmp	r0, #0
 159 0072 0CD1     		bne	.L5
  30:main.c        **** 		t_Delay_ms(500);
 160              		.loc 1 30 0
 161 0074 234C     		ldr	r4, .L8+24
 162 0076 2368     		ldr	r3, [r4]
 163 0078 4025     		movs	r5, #64
 164 007a AB43     		bics	r3, r5
 165 007c 2360     		str	r3, [r4]
  31:main.c        **** 		//CyDelay(500)
 166              		.loc 1 31 0
 167 007e F530     		adds	r0, r0, #245
 168 0080 FF30     		adds	r0, r0, #255
 169 0082 FFF7FEFF 		bl	t_Delay_ms
 170              	.LVL7:
  33:main.c        **** 	}
 171              		.loc 1 33 0
 172 0086 2368     		ldr	r3, [r4]
 173 0088 1D43     		orrs	r5, r3
 174 008a 2560     		str	r5, [r4]
 175 008c 0BE0     		b	.L6
 176              	.L5:
  39:main.c        **** 		t_Delay_ms(500);
 177              		.loc 1 39 0
 178 008e 1F4C     		ldr	r4, .L8+32
 179 0090 2368     		ldr	r3, [r4]
 180 0092 2025     		movs	r5, #32
 181 0094 AB43     		bics	r3, r5
ARM GAS  C:\Users\mahe\AppData\Local\Temp\ccyCzakR.s 			page 6


 182 0096 2360     		str	r3, [r4]
  40:main.c        **** 		//CyDelay(100);
 183              		.loc 1 40 0
 184 0098 FA20     		movs	r0, #250
 185 009a 4000     		lsls	r0, r0, #1
 186 009c FFF7FEFF 		bl	t_Delay_ms
 187              	.LVL8:
  42:main.c        **** 	}
 188              		.loc 1 42 0
 189 00a0 2368     		ldr	r3, [r4]
 190 00a2 1D43     		orrs	r5, r3
 191 00a4 2560     		str	r5, [r4]
 192              	.L6:
  46:main.c        **** 	
 193              		.loc 1 46 0
 194 00a6 0121     		movs	r1, #1
 195 00a8 0020     		movs	r0, #0
 196 00aa FFF7FEFF 		bl	t_WDT_SetMode
 197              	.LVL9:
  51:main.c        **** 	
 198              		.loc 1 51 0
 199 00ae 1849     		ldr	r1, .L8+36
 200 00b0 0020     		movs	r0, #0
 201 00b2 FFF7FEFF 		bl	t_WDT_SetMatch
 202              	.LVL10:
  54:main.c        **** 
 203              		.loc 1 54 0
 204 00b6 0121     		movs	r1, #1
 205 00b8 0020     		movs	r0, #0
 206 00ba FFF7FEFF 		bl	t_WDT_SetClearOnMatch
 207              	.LVL11:
  57:main.c        **** 
 208              		.loc 1 57 0
 209 00be 0820     		movs	r0, #8
 210 00c0 FFF7FEFF 		bl	t_WDT_SetCascade
 211              	.LVL12:
  60:main.c        **** 
 212              		.loc 1 60 0
 213 00c4 0821     		movs	r1, #8
 214 00c6 0120     		movs	r0, #1
 215 00c8 FFF7FEFF 		bl	t_WDT_SetMatch
 216              	.LVL13:
  63:main.c        **** 
 217              		.loc 1 63 0
 218 00cc 0221     		movs	r1, #2
 219 00ce 0120     		movs	r0, #1
 220 00d0 FFF7FEFF 		bl	t_WDT_SetMode
 221              	.LVL14:
  66:main.c        **** 	
 222              		.loc 1 66 0
 223 00d4 0121     		movs	r1, #1
 224 00d6 0120     		movs	r0, #1
 225 00d8 FFF7FEFF 		bl	t_WDT_SetClearOnMatch
 226              	.LVL15:
  70:main.c        **** 	INT_Enable(IRQ7);	
 227              		.loc 1 70 0
 228 00dc 0220     		movs	r0, #2
ARM GAS  C:\Users\mahe\AppData\Local\Temp\ccyCzakR.s 			page 7


 229 00de FF30     		adds	r0, r0, #255
 230 00e0 FFF7FEFF 		bl	t_WDT_Enable
 231              	.LVL16:
  71:main.c        **** 	for(;;)
 232              		.loc 1 71 0
 233 00e4 0720     		movs	r0, #7
 234 00e6 FFF7FEFF 		bl	INT_Enable
 235              	.LVL17:
 236              	.L7:
 237 00ea FEE7     		b	.L7
 238              	.L9:
 239              		.align	2
 240              	.L8:
 241 00ec 00000000 		.word	t_WDT_ISR
 242 00f0 08000440 		.word	1074003976
 243 00f4 FFFFE3FF 		.word	-1835009
 244 00f8 08020440 		.word	1074004488
 245 00fc 08060440 		.word	1074005512
 246 0100 FF7FFCFF 		.word	-229377
 247 0104 00000440 		.word	1074003968
 248 0108 00020440 		.word	1074004480
 249 010c 00060440 		.word	1074005504
 250 0110 FF4F0000 		.word	20479
 251              		.cfi_endproc
 252              	.LFE0:
 253              		.size	main, .-main
 254              		.text
 255              	.Letext0:
 256              		.file 2 "t_udtypes.h"
 257              		.file 3 "t_WDT.h"
 258              		.file 4 "t_CLOCK.h"
 259              		.file 5 "t_INTR.h"