ARM GAS  C:\Users\mahe\AppData\Local\Temp\ccz9CRYC.s 			page 1


   1              		.syntax unified
   2              		.cpu cortex-m0
   3              		.fpu softvfp
   4              		.eabi_attribute 20, 1
   5              		.eabi_attribute 21, 1
   6              		.eabi_attribute 23, 3
   7              		.eabi_attribute 24, 1
   8              		.eabi_attribute 25, 1
   9              		.eabi_attribute 26, 1
  10              		.eabi_attribute 30, 1
  11              		.eabi_attribute 34, 0
  12              		.eabi_attribute 18, 4
  13              		.thumb
  14              		.syntax unified
  15              		.file	"t_CLOCK.c"
  16              		.text
  17              	.Ltext0:
  18              		.cfi_sections	.debug_frame
  19              		.section	.text.t_DelayCycles,"ax",%progbits
  20              		.align	2
  21              		.global	t_DelayCycles
  22              		.code	16
  23              		.thumb_func
  24              		.type	t_DelayCycles, %function
  25              	t_DelayCycles:
  26              	.LFB4:
  27              		.file 1 "t_CLOCK.c"
   1:t_CLOCK.c     **** /* ========================================
   2:t_CLOCK.c     ****  * Name : Clock Basic
   3:t_CLOCK.c     ****  * Date : 17.09.18
   4:t_CLOCK.c     ****  * Author : Kartikey Agrawal
   5:t_CLOCK.c     ****  * Details : Source file for Clocking
   6:t_CLOCK.c     ****  * 			 Refer to Architecture Technical Reference Manual for futher details
   7:t_CLOCK.c     ****  * https://drive.google.com/file/d/0B3i9TBs6C1vTdnVqTFlRdkxKeTRFY0tnaFZoVHBrVnJtY1E0/view?usp=drive
   8:t_CLOCK.c     **** */
   9:t_CLOCK.c     **** 
  10:t_CLOCK.c     **** #include "t_CLOCK.h"
  11:t_CLOCK.c     **** 
  12:t_CLOCK.c     **** //setting default frequency as 48MHz
  13:t_CLOCK.c     **** t_uint32 t_sys_freq = 48000000;
  14:t_CLOCK.c     **** const t_reg8 t_ImoFreqMhz2Reg[46] = {
  15:t_CLOCK.c     ****             /*  3 MHz */ 0x03u,  /*  4 MHz */ 0x04u,  /*  5 MHz */ 0x05u,  /*  6 MHz */ 0x06u,
  16:t_CLOCK.c     ****             /*  7 MHz */ 0x07u,  /*  8 MHz */ 0x08u,  /*  9 MHz */ 0x09u,  /* 10 MHz */ 0x0Au,
  17:t_CLOCK.c     ****             /* 11 MHz */ 0x0Bu,  /* 12 MHz */ 0x0Cu,  /* 13 MHz */ 0x0Eu,  /* 14 MHz */ 0x0Fu,
  18:t_CLOCK.c     ****             /* 15 MHz */ 0x10u,  /* 16 MHz */ 0x11u,  /* 17 MHz */ 0x12u,  /* 18 MHz */ 0x13u,
  19:t_CLOCK.c     ****             /* 19 MHz */ 0x14u,  /* 20 MHz */ 0x15u,  /* 21 MHz */ 0x16u,  /* 22 MHz */ 0x17u,
  20:t_CLOCK.c     ****             /* 23 MHz */ 0x18u,  /* 24 MHz */ 0x19u,  /* 25 MHz */ 0x1Bu,  /* 26 MHz */ 0x1Cu,
  21:t_CLOCK.c     ****             /* 27 MHz */ 0x1Du,  /* 28 MHz */ 0x1Eu,  /* 29 MHz */ 0x1Fu,  /* 30 MHz */ 0x20u,
  22:t_CLOCK.c     ****             /* 31 MHz */ 0x21u,  /* 32 MHz */ 0x22u,  /* 33 MHz */ 0x23u,  /* 34 MHz */ 0x25u,
  23:t_CLOCK.c     ****             /* 35 MHz */ 0x26u,  /* 36 MHz */ 0x27u,  /* 37 MHz */ 0x28u,  /* 38 MHz */ 0x29u,
  24:t_CLOCK.c     ****             /* 39 MHz */ 0x2Au,  /* 40 MHz */ 0x2Bu,  /* 41 MHz */ 0x2Eu,  /* 42 MHz */ 0x2Fu,
  25:t_CLOCK.c     ****             /* 43 MHz */ 0x30u,  /* 44 MHz */ 0x31u,  /* 45 MHz */ 0x32u,  /* 46 MHz */ 0x33u,
  26:t_CLOCK.c     ****             /* 47 MHz */ 0x34u,  /* 48 MHz */ 0x35u };
  27:t_CLOCK.c     **** 
  28:t_CLOCK.c     **** 
  29:t_CLOCK.c     **** /*
  30:t_CLOCK.c     ****  * Name :       t_ClkWriteHfclkDirect()
ARM GAS  C:\Users\mahe\AppData\Local\Temp\ccz9CRYC.s 			page 2


  31:t_CLOCK.c     ****  * Function :   Select between source for High Frequency Clock 1) IMO 2)External Clock
  32:t_CLOCK.c     ****  * Paramaters : t_clkselect
  33:t_CLOCK.c     ****  * Details :    The value of "cycles" is stored in R0 where it is decremented 
  34:t_CLOCK.c     ****  *				writen in assembly language
  35:t_CLOCK.c     **** */
  36:t_CLOCK.c     **** void t_ClkWriteHfclkDirect(t_uint32 t_clkselect)
  37:t_CLOCK.c     **** {
  38:t_CLOCK.c     **** 	t_uint8 t_interruptState = t_EnterCriticalSection();
  39:t_CLOCK.c     **** 	
  40:t_CLOCK.c     **** 	(*(t_reg32*)REG_CLK_SELECT) = (*(t_reg32 *) 0x400b0100u)& ~((( t_uint32 ) 0x07u) |(t_clkselect & (
  41:t_CLOCK.c     **** 	
  42:t_CLOCK.c     ****     t_ExitCriticalSection(t_interruptState);
  43:t_CLOCK.c     **** }
  44:t_CLOCK.c     **** 
  45:t_CLOCK.c     **** /*
  46:t_CLOCK.c     ****  * Name :       t_ClkWriteSysclkDiv()
  47:t_CLOCK.c     ****  * Function :   To divide the high frequency clock to get the required clock frequency
  48:t_CLOCK.c     ****  * Paramaters : t_divider
  49:t_CLOCK.c     ****  * Details :    0x400b0100u = CLK_SELECT -> refer Register_Technical Reference manual
  50:t_CLOCK.c     **** */
  51:t_CLOCK.c     **** void t_ClkWriteSysClkDiv(t_uint32 t_divider)
  52:t_CLOCK.c     **** {
  53:t_CLOCK.c     ****     t_uint8  t_interruptState = t_EnterCriticalSection();
  54:t_CLOCK.c     ****     t_uint8 t_Sys_Clk_Div[8]={1,2,4,8,16,32,64,128};
  55:t_CLOCK.c     **** 	
  56:t_CLOCK.c     **** 	//21,20,19 clear and set that bit
  57:t_CLOCK.c     ****     (*(t_reg32 *) REG_CLK_SELECT) = ((*(t_reg32 *) REG_CLK_SELECT) & ((t_uint32)(~(t_uint32)((t_uin
  58:t_CLOCK.c     ****     t_sys_freq = t_sys_freq / t_Sys_Clk_Div[t_divider];
  59:t_CLOCK.c     ****     t_ExitCriticalSection(t_interruptState);
  60:t_CLOCK.c     **** 	
  61:t_CLOCK.c     **** }
  62:t_CLOCK.c     **** 
  63:t_CLOCK.c     **** /*
  64:t_CLOCK.c     ****  * Name :       t_Delay_ms
  65:t_CLOCK.c     ****  * Function :   To provide delay in Milli-seconds
  66:t_CLOCK.c     ****  * Paramaters : t_time_ms
  67:t_CLOCK.c     ****  * Details :    
  68:t_CLOCK.c     **** */
  69:t_CLOCK.c     **** void t_Delay_ms(t_uint32 t_time_ms)
  70:t_CLOCK.c     **** {
  71:t_CLOCK.c     **** 	//MHz to KHz andn delay for that time
  72:t_CLOCK.c     **** 	t_DelayCycles(t_time_ms *(t_sys_freq/1000u));
  73:t_CLOCK.c     **** }
  74:t_CLOCK.c     **** 
  75:t_CLOCK.c     **** /*
  76:t_CLOCK.c     ****  * Name :       t_Delay_us
  77:t_CLOCK.c     ****  * Function :   To provide delay in Micro-seconds
  78:t_CLOCK.c     ****  * Paramaters : t_time_us
  79:t_CLOCK.c     ****  * Details :    
  80:t_CLOCK.c     **** */
  81:t_CLOCK.c     **** void t_Delay_us(t_uint32 t_time_us)
  82:t_CLOCK.c     **** {
  83:t_CLOCK.c     ****    t_DelayCycles(t_time_us *(t_sys_freq/1000000u));
  84:t_CLOCK.c     **** }
  85:t_CLOCK.c     **** 
  86:t_CLOCK.c     **** /*
  87:t_CLOCK.c     ****  * Name :       t_DelayCycles
ARM GAS  C:\Users\mahe\AppData\Local\Temp\ccz9CRYC.s 			page 3


  88:t_CLOCK.c     ****  * Function :   To give a delay of "cycles" Cycles
  89:t_CLOCK.c     ****  * Paramaters : cycles - unsigned long
  90:t_CLOCK.c     ****  * Details :    The value of "cycles" is stored in R0 where it is decremented 
  91:t_CLOCK.c     ****  *				writen in assembly language
  92:t_CLOCK.c     **** */
  93:t_CLOCK.c     **** t_DelayCycles(t_uint32 cycles)
  94:t_CLOCK.c     **** {
  28              		.loc 1 94 0
  29              		.cfi_startproc
  30              		@ args = 0, pretend = 0, frame = 0
  31              		@ frame_needed = 0, uses_anonymous_args = 0
  32              		@ link register save eliminated.
  33              	.LVL0:
  95:t_CLOCK.c     **** 	asm("LSR R0, #2");
  34              		.loc 1 95 0
  35              		.syntax divided
  36              	@ 95 "t_CLOCK.c" 1
  37 0000 8008     		LSR R0, #2
  38              	@ 0 "" 2
  96:t_CLOCK.c     **** 	asm("BEQ t_CyclesDone");
  39              		.loc 1 96 0
  40              	@ 96 "t_CLOCK.c" 1
  41 0002 01D0     		BEQ t_CyclesDone
  42              	@ 0 "" 2
  97:t_CLOCK.c     **** 	asm("t_LOOP: SUB R0, #1");
  43              		.loc 1 97 0
  44              	@ 97 "t_CLOCK.c" 1
  45 0004 0138     		t_LOOP: SUB R0, #1
  46              	@ 0 "" 2
  98:t_CLOCK.c     **** 	asm("BNE t_LOOP");
  47              		.loc 1 98 0
  48              	@ 98 "t_CLOCK.c" 1
  49 0006 FDD1     		BNE t_LOOP
  50              	@ 0 "" 2
  99:t_CLOCK.c     **** 	asm("t_CyclesDone: BX LR");
  51              		.loc 1 99 0
  52              	@ 99 "t_CLOCK.c" 1
  53 0008 7047     		t_CyclesDone: BX LR
  54              	@ 0 "" 2
 100:t_CLOCK.c     **** }
  55              		.loc 1 100 0
  56              		.thumb
  57              		.syntax unified
  58              		@ sp needed
  59 000a 7047     		bx	lr
  60              		.cfi_endproc
  61              	.LFE4:
  62              		.size	t_DelayCycles, .-t_DelayCycles
  63              		.global	__aeabi_uidiv
  64              		.section	.text.t_Delay_ms,"ax",%progbits
  65              		.align	2
  66              		.global	t_Delay_ms
  67              		.code	16
  68              		.thumb_func
  69              		.type	t_Delay_ms, %function
  70              	t_Delay_ms:
  71              	.LFB2:
ARM GAS  C:\Users\mahe\AppData\Local\Temp\ccz9CRYC.s 			page 4


  70:t_CLOCK.c     **** 	//MHz to KHz andn delay for that time
  72              		.loc 1 70 0
  73              		.cfi_startproc
  74              		@ args = 0, pretend = 0, frame = 0
  75              		@ frame_needed = 0, uses_anonymous_args = 0
  76              	.LVL1:
  77 0000 10B5     		push	{r4, lr}
  78              		.cfi_def_cfa_offset 8
  79              		.cfi_offset 4, -8
  80              		.cfi_offset 14, -4
  81 0002 0400     		movs	r4, r0
  72:t_CLOCK.c     **** }
  82              		.loc 1 72 0
  83 0004 044B     		ldr	r3, .L3
  84 0006 1868     		ldr	r0, [r3]
  85              	.LVL2:
  86 0008 FA21     		movs	r1, #250
  87 000a 8900     		lsls	r1, r1, #2
  88 000c FFF7FEFF 		bl	__aeabi_uidiv
  89              	.LVL3:
  90 0010 6043     		muls	r0, r4
  91 0012 FFF7FEFF 		bl	t_DelayCycles
  92              	.LVL4:
  73:t_CLOCK.c     **** 
  93              		.loc 1 73 0
  94              		@ sp needed
  95              	.LVL5:
  96 0016 10BD     		pop	{r4, pc}
  97              	.L4:
  98              		.align	2
  99              	.L3:
 100 0018 00000000 		.word	.LANCHOR0
 101              		.cfi_endproc
 102              	.LFE2:
 103              		.size	t_Delay_ms, .-t_Delay_ms
 104              		.section	.text.t_Delay_us,"ax",%progbits
 105              		.align	2
 106              		.global	t_Delay_us
 107              		.code	16
 108              		.thumb_func
 109              		.type	t_Delay_us, %function
 110              	t_Delay_us:
 111              	.LFB3:
  82:t_CLOCK.c     ****    t_DelayCycles(t_time_us *(t_sys_freq/1000000u));
 112              		.loc 1 82 0
 113              		.cfi_startproc
 114              		@ args = 0, pretend = 0, frame = 0
 115              		@ frame_needed = 0, uses_anonymous_args = 0
 116              	.LVL6:
 117 0000 10B5     		push	{r4, lr}
 118              		.cfi_def_cfa_offset 8
 119              		.cfi_offset 4, -8
 120              		.cfi_offset 14, -4
 121 0002 0400     		movs	r4, r0
  83:t_CLOCK.c     **** }
 122              		.loc 1 83 0
 123 0004 044B     		ldr	r3, .L6
ARM GAS  C:\Users\mahe\AppData\Local\Temp\ccz9CRYC.s 			page 5


 124 0006 1868     		ldr	r0, [r3]
 125              	.LVL7:
 126 0008 0449     		ldr	r1, .L6+4
 127 000a FFF7FEFF 		bl	__aeabi_uidiv
 128              	.LVL8:
 129 000e 6043     		muls	r0, r4
 130 0010 FFF7FEFF 		bl	t_DelayCycles
 131              	.LVL9:
  84:t_CLOCK.c     **** 
 132              		.loc 1 84 0
 133              		@ sp needed
 134              	.LVL10:
 135 0014 10BD     		pop	{r4, pc}
 136              	.L7:
 137 0016 C046     		.align	2
 138              	.L6:
 139 0018 00000000 		.word	.LANCHOR0
 140 001c 40420F00 		.word	1000000
 141              		.cfi_endproc
 142              	.LFE3:
 143              		.size	t_Delay_us, .-t_Delay_us
 144              		.section	.text.t_EnterCriticalSection,"ax",%progbits
 145              		.align	2
 146              		.global	t_EnterCriticalSection
 147              		.code	16
 148              		.thumb_func
 149              		.type	t_EnterCriticalSection, %function
 150              	t_EnterCriticalSection:
 151              	.LFB5:
 101:t_CLOCK.c     **** 
 102:t_CLOCK.c     **** t_uint8 t_EnterCriticalSection(void)
 103:t_CLOCK.c     **** {
 152              		.loc 1 103 0
 153              		.cfi_startproc
 154              		@ args = 0, pretend = 0, frame = 0
 155              		@ frame_needed = 0, uses_anonymous_args = 0
 156              		@ link register save eliminated.
 104:t_CLOCK.c     **** 	//Move from Special to working register
 105:t_CLOCK.c     **** 	asm("MRS R0, PRIMASK");
 157              		.loc 1 105 0
 158              		.syntax divided
 159              	@ 105 "t_CLOCK.c" 1
 160 0000 EFF31080 		MRS R0, PRIMASK
 161              	@ 0 "" 2
 106:t_CLOCK.c     **** 	//Disable Interrupt
 107:t_CLOCK.c     **** 	asm("CPSID I");
 162              		.loc 1 107 0
 163              	@ 107 "t_CLOCK.c" 1
 164 0004 72B6     		CPSID I
 165              	@ 0 "" 2
 108:t_CLOCK.c     **** 	//
 109:t_CLOCK.c     **** 	asm("BX LR");
 166              		.loc 1 109 0
 167              	@ 109 "t_CLOCK.c" 1
 168 0006 7047     		BX LR
 169              	@ 0 "" 2
 110:t_CLOCK.c     **** }
ARM GAS  C:\Users\mahe\AppData\Local\Temp\ccz9CRYC.s 			page 6


 170              		.loc 1 110 0
 171              		.thumb
 172              		.syntax unified
 173              		@ sp needed
 174 0008 7047     		bx	lr
 175              		.cfi_endproc
 176              	.LFE5:
 177              		.size	t_EnterCriticalSection, .-t_EnterCriticalSection
 178 000a C046     		.section	.text.t_ExitCriticalSection,"ax",%progbits
 179              		.align	2
 180              		.global	t_ExitCriticalSection
 181              		.code	16
 182              		.thumb_func
 183              		.type	t_ExitCriticalSection, %function
 184              	t_ExitCriticalSection:
 185              	.LFB6:
 111:t_CLOCK.c     **** 
 112:t_CLOCK.c     **** /*
 113:t_CLOCK.c     ****  * Name :       t_ExitCriticalSection
 114:t_CLOCK.c     ****  * Function :   To exit critical section
 115:t_CLOCK.c     ****  * Paramaters : t_IntrStatus -> which sends the value of R0
 116:t_CLOCK.c     ****  * Details :    The value of "cycles" is stored in R0 where it is decremented 
 117:t_CLOCK.c     ****  *				writen in assembly language
 118:t_CLOCK.c     **** */
 119:t_CLOCK.c     **** void t_ExitCriticalSection(t_uint8 t_IntrStatus)
 120:t_CLOCK.c     **** {
 186              		.loc 1 120 0
 187              		.cfi_startproc
 188              		@ args = 0, pretend = 0, frame = 0
 189              		@ frame_needed = 0, uses_anonymous_args = 0
 190              		@ link register save eliminated.
 191              	.LVL11:
 121:t_CLOCK.c     **** 	asm("MSR PRIMASK, R0");
 192              		.loc 1 121 0
 193              		.syntax divided
 194              	@ 121 "t_CLOCK.c" 1
 195 0000 80F31088 		MSR PRIMASK, R0
 196              	@ 0 "" 2
 122:t_CLOCK.c     **** 	asm("BX LR");
 197              		.loc 1 122 0
 198              	@ 122 "t_CLOCK.c" 1
 199 0004 7047     		BX LR
 200              	@ 0 "" 2
 123:t_CLOCK.c     **** }
 201              		.loc 1 123 0
 202              		.thumb
 203              		.syntax unified
 204              		@ sp needed
 205 0006 7047     		bx	lr
 206              		.cfi_endproc
 207              	.LFE6:
 208              		.size	t_ExitCriticalSection, .-t_ExitCriticalSection
 209              		.section	.text.t_ClkWriteHfclkDirect,"ax",%progbits
 210              		.align	2
 211              		.global	t_ClkWriteHfclkDirect
 212              		.code	16
 213              		.thumb_func
ARM GAS  C:\Users\mahe\AppData\Local\Temp\ccz9CRYC.s 			page 7


 214              		.type	t_ClkWriteHfclkDirect, %function
 215              	t_ClkWriteHfclkDirect:
 216              	.LFB0:
  37:t_CLOCK.c     **** 	t_uint8 t_interruptState = t_EnterCriticalSection();
 217              		.loc 1 37 0
 218              		.cfi_startproc
 219              		@ args = 0, pretend = 0, frame = 0
 220              		@ frame_needed = 0, uses_anonymous_args = 0
 221              	.LVL12:
 222 0000 10B5     		push	{r4, lr}
 223              		.cfi_def_cfa_offset 8
 224              		.cfi_offset 4, -8
 225              		.cfi_offset 14, -4
  38:t_CLOCK.c     **** 	
 226              		.loc 1 38 0
 227 0002 FFF7FEFF 		bl	t_EnterCriticalSection
 228              	.LVL13:
  40:t_CLOCK.c     **** 	
 229              		.loc 1 40 0
 230 0006 044A     		ldr	r2, .L11
 231 0008 1368     		ldr	r3, [r2]
 232 000a 0721     		movs	r1, #7
 233 000c 8B43     		bics	r3, r1
 234 000e 1360     		str	r3, [r2]
  42:t_CLOCK.c     **** }
 235              		.loc 1 42 0
 236 0010 FFF7FEFF 		bl	t_ExitCriticalSection
 237              	.LVL14:
  43:t_CLOCK.c     **** 
 238              		.loc 1 43 0
 239              		@ sp needed
 240 0014 10BD     		pop	{r4, pc}
 241              	.L12:
 242 0016 C046     		.align	2
 243              	.L11:
 244 0018 00010B40 		.word	1074462976
 245              		.cfi_endproc
 246              	.LFE0:
 247              		.size	t_ClkWriteHfclkDirect, .-t_ClkWriteHfclkDirect
 248              		.section	.text.t_ClkWriteSysClkDiv,"ax",%progbits
 249              		.align	2
 250              		.global	t_ClkWriteSysClkDiv
 251              		.code	16
 252              		.thumb_func
 253              		.type	t_ClkWriteSysClkDiv, %function
 254              	t_ClkWriteSysClkDiv:
 255              	.LFB1:
  52:t_CLOCK.c     ****     t_uint8  t_interruptState = t_EnterCriticalSection();
 256              		.loc 1 52 0
 257              		.cfi_startproc
 258              		@ args = 0, pretend = 0, frame = 8
 259              		@ frame_needed = 0, uses_anonymous_args = 0
 260              	.LVL15:
 261 0000 30B5     		push	{r4, r5, lr}
 262              		.cfi_def_cfa_offset 12
 263              		.cfi_offset 4, -12
 264              		.cfi_offset 5, -8
ARM GAS  C:\Users\mahe\AppData\Local\Temp\ccz9CRYC.s 			page 8


 265              		.cfi_offset 14, -4
 266 0002 83B0     		sub	sp, sp, #12
 267              		.cfi_def_cfa_offset 24
 268 0004 0500     		movs	r5, r0
  53:t_CLOCK.c     ****     t_uint8 t_Sys_Clk_Div[8]={1,2,4,8,16,32,64,128};
 269              		.loc 1 53 0
 270 0006 FFF7FEFF 		bl	t_EnterCriticalSection
 271              	.LVL16:
 272 000a 0400     		movs	r4, r0
 273              	.LVL17:
  54:t_CLOCK.c     **** 	
 274              		.loc 1 54 0
 275 000c 0822     		movs	r2, #8
 276 000e 0D49     		ldr	r1, .L14
 277 0010 6846     		mov	r0, sp
 278 0012 FFF7FEFF 		bl	memcpy
 279              	.LVL18:
  57:t_CLOCK.c     ****     t_sys_freq = t_sys_freq / t_Sys_Clk_Div[t_divider];
 280              		.loc 1 57 0
 281 0016 0C48     		ldr	r0, .L14+4
 282 0018 0368     		ldr	r3, [r0]
 283 001a 9B0D     		lsrs	r3, r3, #22
 284 001c 9905     		lsls	r1, r3, #22
 285 001e EB04     		lsls	r3, r5, #19
 286 0020 E022     		movs	r2, #224
 287 0022 9203     		lsls	r2, r2, #14
 288 0024 1340     		ands	r3, r2
 289 0026 0B43     		orrs	r3, r1
 290 0028 0360     		str	r3, [r0]
  58:t_CLOCK.c     ****     t_ExitCriticalSection(t_interruptState);
 291              		.loc 1 58 0
 292 002a 6B46     		mov	r3, sp
 293 002c 595D     		ldrb	r1, [r3, r5]
 294 002e 074D     		ldr	r5, .L14+8
 295              	.LVL19:
 296 0030 2868     		ldr	r0, [r5]
 297 0032 FFF7FEFF 		bl	__aeabi_uidiv
 298              	.LVL20:
 299 0036 2860     		str	r0, [r5]
  59:t_CLOCK.c     **** 	
 300              		.loc 1 59 0
 301 0038 2000     		movs	r0, r4
 302 003a FFF7FEFF 		bl	t_ExitCriticalSection
 303              	.LVL21:
  61:t_CLOCK.c     **** 
 304              		.loc 1 61 0
 305 003e 03B0     		add	sp, sp, #12
 306              		@ sp needed
 307              	.LVL22:
 308 0040 30BD     		pop	{r4, r5, pc}
 309              	.L15:
 310 0042 C046     		.align	2
 311              	.L14:
 312 0044 00000000 		.word	.LANCHOR1
 313 0048 00010B40 		.word	1074462976
 314 004c 00000000 		.word	.LANCHOR0
 315              		.cfi_endproc
ARM GAS  C:\Users\mahe\AppData\Local\Temp\ccz9CRYC.s 			page 9


 316              	.LFE1:
 317              		.size	t_ClkWriteSysClkDiv, .-t_ClkWriteSysClkDiv
 318              		.section	.text.t_ClkWriteImoFreq,"ax",%progbits
 319              		.align	2
 320              		.global	t_ClkWriteImoFreq
 321              		.code	16
 322              		.thumb_func
 323              		.type	t_ClkWriteImoFreq, %function
 324              	t_ClkWriteImoFreq:
 325              	.LFB7:
 124:t_CLOCK.c     **** 
 125:t_CLOCK.c     **** 
 126:t_CLOCK.c     **** /*
 127:t_CLOCK.c     ****  * Name :       t_ClkWriteImoFreq
 128:t_CLOCK.c     ****  * Function :   To write frequency
 129:t_CLOCK.c     ****  * Paramaters : t_freq -> value of frequency required
 130:t_CLOCK.c     ****  * Details :    Clocking algorithm implmentation
 131:t_CLOCK.c     ****  *				For details see : 
 132:t_CLOCK.c     **** */
 133:t_CLOCK.c     **** void t_ClkWriteImoFreq(t_uint8 t_freq)
 134:t_CLOCK.c     **** {
 326              		.loc 1 134 0
 327              		.cfi_startproc
 328              		@ args = 0, pretend = 0, frame = 8
 329              		@ frame_needed = 0, uses_anonymous_args = 0
 330              	.LVL23:
 331 0000 F0B5     		push	{r4, r5, r6, r7, lr}
 332              		.cfi_def_cfa_offset 20
 333              		.cfi_offset 4, -20
 334              		.cfi_offset 5, -16
 335              		.cfi_offset 6, -12
 336              		.cfi_offset 7, -8
 337              		.cfi_offset 14, -4
 338 0002 5746     		mov	r7, r10
 339 0004 4E46     		mov	r6, r9
 340 0006 C0B4     		push	{r6, r7}
 341              		.cfi_def_cfa_offset 28
 342              		.cfi_offset 9, -28
 343              		.cfi_offset 10, -24
 344 0008 83B0     		sub	sp, sp, #12
 345              		.cfi_def_cfa_offset 40
 346 000a 0400     		movs	r4, r0
 135:t_CLOCK.c     **** 	t_uint8 t_bgtrim4;
 136:t_CLOCK.c     **** 	t_uint8 t_bgtrim5;
 137:t_CLOCK.c     **** 	t_uint8 t_newImoTrim2Value;
 138:t_CLOCK.c     **** 	t_uint8 t_currentImoTrim2Value;
 139:t_CLOCK.c     **** 	t_uint8 t_imoTrim1Value;
 140:t_CLOCK.c     **** 	
 141:t_CLOCK.c     **** 	//From here on interrupts are disabled
 142:t_CLOCK.c     **** 	t_uint8 t_interruptstate = t_EnterCriticalSection();
 347              		.loc 1 142 0
 348 000c FFF7FEFF 		bl	t_EnterCriticalSection
 349              	.LVL24:
 350 0010 0190     		str	r0, [sp, #4]
 351              	.LVL25:
 143:t_CLOCK.c     **** 	
 144:t_CLOCK.c     **** 	if((t_freq >= 3u) && (t_freq <= 48u))
ARM GAS  C:\Users\mahe\AppData\Local\Temp\ccz9CRYC.s 			page 10


 352              		.loc 1 144 0
 353 0012 E31E     		subs	r3, r4, #3
 354 0014 DBB2     		uxtb	r3, r3
 355 0016 2D2B     		cmp	r3, #45
 356 0018 00D9     		bls	.LCB234
 357 001a 84E0     		b	.L17	@long jump
 358              	.LCB234:
 145:t_CLOCK.c     **** 	{
 146:t_CLOCK.c     **** 		if(t_freq <= (*(t_reg8*)SFLASH_IMO_MAXF0))
 359              		.loc 1 146 0
 360 001c 484B     		ldr	r3, .L25
 361 001e 1B78     		ldrb	r3, [r3]
 362 0020 DBB2     		uxtb	r3, r3
 363 0022 9C42     		cmp	r4, r3
 364 0024 06D8     		bhi	.L18
 147:t_CLOCK.c     **** 		{
 148:t_CLOCK.c     **** 			t_bgtrim4 = (*(t_reg8*)SFLASH_IMO_ABS0);
 365              		.loc 1 148 0
 366 0026 474B     		ldr	r3, .L25+4
 367 0028 1B78     		ldrb	r3, [r3]
 368 002a DDB2     		uxtb	r5, r3
 369              	.LVL26:
 149:t_CLOCK.c     **** 			t_bgtrim5 = (*(t_reg8*)SFLASH_IMO_TMPCO0);
 370              		.loc 1 149 0
 371 002c 464B     		ldr	r3, .L25+8
 372 002e 1F78     		ldrb	r7, [r3]
 373 0030 FFB2     		uxtb	r7, r7
 374              	.LVL27:
 375 0032 29E0     		b	.L19
 376              	.LVL28:
 377              	.L18:
 150:t_CLOCK.c     **** 		}
 151:t_CLOCK.c     **** 		
 152:t_CLOCK.c     **** 		else if(t_freq <= (*(t_reg8*)SFLASH_IMO_MAXF1))
 378              		.loc 1 152 0
 379 0034 454B     		ldr	r3, .L25+12
 380 0036 1B78     		ldrb	r3, [r3]
 381 0038 DBB2     		uxtb	r3, r3
 382 003a 9C42     		cmp	r4, r3
 383 003c 06D8     		bhi	.L20
 153:t_CLOCK.c     **** 		{
 154:t_CLOCK.c     **** 			t_bgtrim4 = (*(t_reg8*)SFLASH_IMO_ABS1);
 384              		.loc 1 154 0
 385 003e 444B     		ldr	r3, .L25+16
 386 0040 1B78     		ldrb	r3, [r3]
 387 0042 DDB2     		uxtb	r5, r3
 388              	.LVL29:
 155:t_CLOCK.c     **** 			t_bgtrim5 = (*(t_reg8*)SFLASH_IMO_TMPCO1);
 389              		.loc 1 155 0
 390 0044 434B     		ldr	r3, .L25+20
 391 0046 1F78     		ldrb	r7, [r3]
 392 0048 FFB2     		uxtb	r7, r7
 393              	.LVL30:
 394 004a 1DE0     		b	.L19
 395              	.LVL31:
 396              	.L20:
 156:t_CLOCK.c     **** 		}
ARM GAS  C:\Users\mahe\AppData\Local\Temp\ccz9CRYC.s 			page 11


 157:t_CLOCK.c     **** 		
 158:t_CLOCK.c     **** 		else if(t_freq <= (*(t_reg8*)SFLASH_IMO_MAXF2))
 397              		.loc 1 158 0
 398 004c 424B     		ldr	r3, .L25+24
 399 004e 1B78     		ldrb	r3, [r3]
 400 0050 DBB2     		uxtb	r3, r3
 401 0052 9C42     		cmp	r4, r3
 402 0054 06D8     		bhi	.L21
 159:t_CLOCK.c     **** 		{
 160:t_CLOCK.c     **** 			t_bgtrim4 = (*(t_reg8*)SFLASH_IMO_ABS2);
 403              		.loc 1 160 0
 404 0056 414B     		ldr	r3, .L25+28
 405 0058 1B78     		ldrb	r3, [r3]
 406 005a DDB2     		uxtb	r5, r3
 407              	.LVL32:
 161:t_CLOCK.c     **** 			t_bgtrim5 = (*(t_reg8*)SFLASH_IMO_TMPCO2);
 408              		.loc 1 161 0
 409 005c 404B     		ldr	r3, .L25+32
 410 005e 1F78     		ldrb	r7, [r3]
 411 0060 FFB2     		uxtb	r7, r7
 412              	.LVL33:
 413 0062 11E0     		b	.L19
 414              	.LVL34:
 415              	.L21:
 162:t_CLOCK.c     **** 		}
 163:t_CLOCK.c     **** 		
 164:t_CLOCK.c     **** 		else if(t_freq <= (*(t_reg8*)SFLASH_IMO_MAXF3))
 416              		.loc 1 164 0
 417 0064 3F4B     		ldr	r3, .L25+36
 418 0066 1B78     		ldrb	r3, [r3]
 419 0068 DBB2     		uxtb	r3, r3
 420 006a 9C42     		cmp	r4, r3
 421 006c 06D8     		bhi	.L22
 165:t_CLOCK.c     **** 		{
 166:t_CLOCK.c     **** 			t_bgtrim4 = (*(t_reg8*)SFLASH_IMO_ABS3);
 422              		.loc 1 166 0
 423 006e 3E4B     		ldr	r3, .L25+40
 424 0070 1B78     		ldrb	r3, [r3]
 425 0072 DDB2     		uxtb	r5, r3
 426              	.LVL35:
 167:t_CLOCK.c     **** 			t_bgtrim5 = (*(t_reg8*)SFLASH_IMO_TMPCO3);
 427              		.loc 1 167 0
 428 0074 3D4B     		ldr	r3, .L25+44
 429 0076 1F78     		ldrb	r7, [r3]
 430 0078 FFB2     		uxtb	r7, r7
 431              	.LVL36:
 432 007a 05E0     		b	.L19
 433              	.LVL37:
 434              	.L22:
 168:t_CLOCK.c     **** 		}
 169:t_CLOCK.c     **** 		else
 170:t_CLOCK.c     **** 		{
 171:t_CLOCK.c     **** 			t_bgtrim4 = (*(t_reg8*)SFLASH_IMO_ABS4);
 435              		.loc 1 171 0
 436 007c 3C4B     		ldr	r3, .L25+48
 437 007e 1B78     		ldrb	r3, [r3]
 438 0080 DDB2     		uxtb	r5, r3
ARM GAS  C:\Users\mahe\AppData\Local\Temp\ccz9CRYC.s 			page 12


 439              	.LVL38:
 172:t_CLOCK.c     **** 			t_bgtrim5 = (*(t_reg8*)SFLASH_IMO_TMPCO4);
 440              		.loc 1 172 0
 441 0082 3C4B     		ldr	r3, .L25+52
 442 0084 1F78     		ldrb	r7, [r3]
 443 0086 FFB2     		uxtb	r7, r7
 444              	.LVL39:
 445              	.L19:
 173:t_CLOCK.c     **** 		}
 174:t_CLOCK.c     **** 		
 175:t_CLOCK.c     **** 		t_newImoTrim2Value = t_ImoFreqMhz2Reg[t_freq - 3];
 446              		.loc 1 175 0
 447 0088 E61E     		subs	r6, r4, #3
 448 008a 3B4B     		ldr	r3, .L25+56
 449 008c 9B19     		adds	r3, r3, r6
 450 008e 1B79     		ldrb	r3, [r3, #4]
 451 0090 DBB2     		uxtb	r3, r3
 452              	.LVL40:
 176:t_CLOCK.c     **** 		t_currentImoTrim2Value =(t_uint32)(*((t_reg32*)REG_CLK_IMO_TRIM2) & 0x3F);
 453              		.loc 1 176 0
 454 0092 3A4A     		ldr	r2, .L25+60
 455 0094 1268     		ldr	r2, [r2]
 456 0096 3F21     		movs	r1, #63
 457 0098 0A40     		ands	r2, r1
 458              	.LVL41:
 177:t_CLOCK.c     **** 		
 178:t_CLOCK.c     **** 		if(((t_newImoTrim2Value >= 0x30u) && (t_freq >= 43u)&&(t_currentImoTrim2Value >= 43u)))
 459              		.loc 1 178 0
 460 009a 2F2B     		cmp	r3, #47
 461 009c 1CD9     		bls	.L23
 462              		.loc 1 178 0 is_stmt 0 discriminator 1
 463 009e 2A2C     		cmp	r4, #42
 464 00a0 1AD9     		bls	.L23
 465              		.loc 1 178 0 discriminator 2
 466 00a2 2A2A     		cmp	r2, #42
 467 00a4 18D9     		bls	.L23
 179:t_CLOCK.c     **** 		{
 180:t_CLOCK.c     **** 			//Change CLK_IMO_TRIM2 to a lower frequency 24Mhz
 181:t_CLOCK.c     **** 			*(t_reg32*)REG_CLK_IMO_TRIM2 = (t_uint32)t_ImoFreqMhz2Reg[24u - 3];
 468              		.loc 1 181 0 is_stmt 1
 469 00a6 344B     		ldr	r3, .L25+56
 470              	.LVL42:
 471 00a8 9946     		mov	r9, r3
 472 00aa 5B7E     		ldrb	r3, [r3, #25]
 473 00ac DBB2     		uxtb	r3, r3
 474 00ae 334A     		ldr	r2, .L25+60
 475              	.LVL43:
 476 00b0 9246     		mov	r10, r2
 477 00b2 1360     		str	r3, [r2]
 478              	.LVL44:
 182:t_CLOCK.c     **** 			
 183:t_CLOCK.c     **** 			//Apply TRIM1, 
 184:t_CLOCK.c     **** 			t_imoTrim1Value = (t_uint8) (((t_uint8 *)SFLASH_IMO_TRIM_BASE)[t_freq-3]);
 479              		.loc 1 184 0
 480 00b4 2F4B     		ldr	r3, .L25+52
 481 00b6 E318     		adds	r3, r4, r3
 482 00b8 1A78     		ldrb	r2, [r3]
ARM GAS  C:\Users\mahe\AppData\Local\Temp\ccz9CRYC.s 			page 13


 483              	.LVL45:
 185:t_CLOCK.c     **** 			*(t_reg32*)REG_CLK_IMO_TRIM1=(t_uint32)t_imoTrim1Value;
 484              		.loc 1 185 0
 485 00ba 314B     		ldr	r3, .L25+64
 486 00bc 1A60     		str	r2, [r3]
 186:t_CLOCK.c     ****             *(t_reg32*)REG_PWR_BG_TRIM4=t_bgtrim4;
 487              		.loc 1 186 0
 488 00be 314B     		ldr	r3, .L25+68
 489 00c0 1D60     		str	r5, [r3]
 187:t_CLOCK.c     ****             *(t_reg32*)REG_PWR_BR_TRIM5=t_bgtrim5;
 490              		.loc 1 187 0
 491 00c2 314B     		ldr	r3, .L25+72
 492 00c4 1F60     		str	r7, [r3]
 188:t_CLOCK.c     **** 			
 189:t_CLOCK.c     **** 			//Delay for 5 millis
 190:t_CLOCK.c     ****             t_DelayCycles(5u);
 493              		.loc 1 190 0
 494 00c6 0520     		movs	r0, #5
 495 00c8 FFF7FEFF 		bl	t_DelayCycles
 496              	.LVL46:
 191:t_CLOCK.c     **** 			
 192:t_CLOCK.c     **** 			//Change the Imo Frequency to the new Frequency
 193:t_CLOCK.c     ****             *(t_reg32*)0x400BFF2C=t_ImoFreqMhz2Reg[t_freq-3];
 497              		.loc 1 193 0
 498 00cc 4E44     		add	r6, r6, r9
 499 00ce 3379     		ldrb	r3, [r6, #4]
 500 00d0 DBB2     		uxtb	r3, r3
 501 00d2 5246     		mov	r2, r10
 502 00d4 1360     		str	r3, [r2]
 503 00d6 26E0     		b	.L17
 504              	.LVL47:
 505              	.L23:
 194:t_CLOCK.c     **** 		}
 195:t_CLOCK.c     **** 		else if (t_newImoTrim2Value > t_currentImoTrim2Value)
 506              		.loc 1 195 0
 507 00d8 9342     		cmp	r3, r2
 508 00da 12D9     		bls	.L24
 196:t_CLOCK.c     ****         {
 197:t_CLOCK.c     ****         	t_imoTrim1Value = (t_uint8) ( ((t_uint8 *) SFLASH_IMO_TRIM_BASE)[t_freq-3]);
 509              		.loc 1 197 0
 510 00dc 254B     		ldr	r3, .L25+52
 511              	.LVL48:
 512 00de E318     		adds	r3, r4, r3
 513 00e0 1A78     		ldrb	r2, [r3]
 514              	.LVL49:
 198:t_CLOCK.c     ****         	*(t_reg32*)REG_CLK_IMO_TRIM1 = (t_uint32)t_imoTrim1Value;
 515              		.loc 1 198 0
 516 00e2 274B     		ldr	r3, .L25+64
 517 00e4 1A60     		str	r2, [r3]
 518              	.LVL50:
 199:t_CLOCK.c     ****         	*(t_reg32*)REG_PWR_BG_TRIM4 = t_bgtrim4;
 519              		.loc 1 199 0
 520 00e6 274B     		ldr	r3, .L25+68
 521 00e8 1D60     		str	r5, [r3]
 200:t_CLOCK.c     ****         	*(t_reg32*)REG_PWR_BR_TRIM5 = t_bgtrim5;
 522              		.loc 1 200 0
 523 00ea 274B     		ldr	r3, .L25+72
ARM GAS  C:\Users\mahe\AppData\Local\Temp\ccz9CRYC.s 			page 14


 524 00ec 1F60     		str	r7, [r3]
 201:t_CLOCK.c     **** 			
 202:t_CLOCK.c     ****         	t_DelayCycles(5u);
 525              		.loc 1 202 0
 526 00ee 0520     		movs	r0, #5
 527 00f0 FFF7FEFF 		bl	t_DelayCycles
 528              	.LVL51:
 203:t_CLOCK.c     **** 			
 204:t_CLOCK.c     ****         	*(t_reg32*)0x400BFF2C=t_ImoFreqMhz2Reg[t_freq-3];    
 529              		.loc 1 204 0
 530 00f4 204B     		ldr	r3, .L25+56
 531 00f6 9E19     		adds	r6, r3, r6
 532 00f8 3379     		ldrb	r3, [r6, #4]
 533 00fa DBB2     		uxtb	r3, r3
 534 00fc 1F4A     		ldr	r2, .L25+60
 535 00fe 1360     		str	r3, [r2]
 536 0100 11E0     		b	.L17
 537              	.LVL52:
 538              	.L24:
 205:t_CLOCK.c     ****         }
 206:t_CLOCK.c     ****         else
 207:t_CLOCK.c     ****         {
 208:t_CLOCK.c     ****         	*(t_reg32*)0x400BFF2C=t_ImoFreqMhz2Reg[t_freq-3];
 539              		.loc 1 208 0
 540 0102 1D4B     		ldr	r3, .L25+56
 541              	.LVL53:
 542 0104 9E19     		adds	r6, r3, r6
 543 0106 3379     		ldrb	r3, [r6, #4]
 544 0108 DBB2     		uxtb	r3, r3
 545 010a 1C4A     		ldr	r2, .L25+60
 546              	.LVL54:
 547 010c 1360     		str	r3, [r2]
 548              	.LVL55:
 209:t_CLOCK.c     **** 			
 210:t_CLOCK.c     ****         	t_DelayCycles(5u);
 549              		.loc 1 210 0
 550 010e 0520     		movs	r0, #5
 551 0110 FFF7FEFF 		bl	t_DelayCycles
 552              	.LVL56:
 211:t_CLOCK.c     **** 			
 212:t_CLOCK.c     ****         	t_imoTrim1Value = (t_uint8) ( ((t_uint8 *) SFLASH_IMO_TRIM_BASE)[t_freq-3]);
 553              		.loc 1 212 0
 554 0114 174B     		ldr	r3, .L25+52
 555 0116 E318     		adds	r3, r4, r3
 556 0118 1A78     		ldrb	r2, [r3]
 557              	.LVL57:
 213:t_CLOCK.c     ****         	*(t_reg32*)REG_CLK_IMO_TRIM1 = (t_uint32)t_imoTrim1Value;
 558              		.loc 1 213 0
 559 011a 194B     		ldr	r3, .L25+64
 560 011c 1A60     		str	r2, [r3]
 214:t_CLOCK.c     ****        		*(t_reg32*)REG_PWR_BG_TRIM4 = t_bgtrim4;
 561              		.loc 1 214 0
 562 011e 194B     		ldr	r3, .L25+68
 563 0120 1D60     		str	r5, [r3]
 215:t_CLOCK.c     ****         	*(t_reg32*)REG_PWR_BR_TRIM5 = t_bgtrim5;    
 564              		.loc 1 215 0
 565 0122 194B     		ldr	r3, .L25+72
ARM GAS  C:\Users\mahe\AppData\Local\Temp\ccz9CRYC.s 			page 15


 566 0124 1F60     		str	r7, [r3]
 567              	.LVL58:
 568              	.L17:
 216:t_CLOCK.c     ****         }
 217:t_CLOCK.c     **** 	}
 218:t_CLOCK.c     **** 	//input frequency t_freq to MHz value
 219:t_CLOCK.c     **** 	t_sys_freq = t_freq * 1000000;
 569              		.loc 1 219 0
 570 0126 194B     		ldr	r3, .L25+76
 571 0128 5C43     		muls	r4, r3
 572 012a 134B     		ldr	r3, .L25+56
 573 012c 1C60     		str	r4, [r3]
 220:t_CLOCK.c     **** 	
 221:t_CLOCK.c     **** 	t_ExitCriticalSection(t_interruptstate);
 574              		.loc 1 221 0
 575 012e 0198     		ldr	r0, [sp, #4]
 576 0130 FFF7FEFF 		bl	t_ExitCriticalSection
 577              	.LVL59:
 222:t_CLOCK.c     **** }
 578              		.loc 1 222 0
 579 0134 03B0     		add	sp, sp, #12
 580              		@ sp needed
 581 0136 0CBC     		pop	{r2, r3}
 582 0138 9146     		mov	r9, r2
 583 013a 9A46     		mov	r10, r3
 584 013c F0BD     		pop	{r4, r5, r6, r7, pc}
 585              	.L26:
 586 013e C046     		.align	2
 587              	.L25:
 588 0140 C0F1FF0F 		.word	268431808
 589 0144 C1F1FF0F 		.word	268431809
 590 0148 C2F1FF0F 		.word	268431810
 591 014c C3F1FF0F 		.word	268431811
 592 0150 C4F1FF0F 		.word	268431812
 593 0154 C5F1FF0F 		.word	268431813
 594 0158 C6F1FF0F 		.word	268431814
 595 015c C7F1FF0F 		.word	268431815
 596 0160 C8F1FF0F 		.word	268431816
 597 0164 C9F1FF0F 		.word	268431817
 598 0168 CAF1FF0F 		.word	268431818
 599 016c CBF1FF0F 		.word	268431819
 600 0170 CCF1FF0F 		.word	268431820
 601 0174 CDF1FF0F 		.word	268431821
 602 0178 00000000 		.word	.LANCHOR0
 603 017c 2CFF0B40 		.word	1074528044
 604 0180 28FF0B40 		.word	1074528040
 605 0184 1CFF0B40 		.word	1074528028
 606 0188 20FF0B40 		.word	1074528032
 607 018c 40420F00 		.word	1000000
 608              		.cfi_endproc
 609              	.LFE7:
 610              		.size	t_ClkWriteImoFreq, .-t_ClkWriteImoFreq
 611              		.global	t_ImoFreqMhz2Reg
 612              		.global	t_sys_freq
 613              		.section	.rodata
 614              		.align	2
 615              		.set	.LANCHOR1,. + 0
ARM GAS  C:\Users\mahe\AppData\Local\Temp\ccz9CRYC.s 			page 16


 616              	.LC0:
 617 0000 01       		.byte	1
 618 0001 02       		.byte	2
 619 0002 04       		.byte	4
 620 0003 08       		.byte	8
 621 0004 10       		.byte	16
 622 0005 20       		.byte	32
 623 0006 40       		.byte	64
 624 0007 80       		.byte	-128
 625              		.data
 626              		.align	2
 627              		.set	.LANCHOR0,. + 0
 628              		.type	t_sys_freq, %object
 629              		.size	t_sys_freq, 4
 630              	t_sys_freq:
 631 0000 006CDC02 		.word	48000000
 632              		.type	t_ImoFreqMhz2Reg, %object
 633              		.size	t_ImoFreqMhz2Reg, 46
 634              	t_ImoFreqMhz2Reg:
 635 0004 03       		.byte	3
 636 0005 04       		.byte	4
 637 0006 05       		.byte	5
 638 0007 06       		.byte	6
 639 0008 07       		.byte	7
 640 0009 08       		.byte	8
 641 000a 09       		.byte	9
 642 000b 0A       		.byte	10
 643 000c 0B       		.byte	11
 644 000d 0C       		.byte	12
 645 000e 0E       		.byte	14
 646 000f 0F       		.byte	15
 647 0010 10       		.byte	16
 648 0011 11       		.byte	17
 649 0012 12       		.byte	18
 650 0013 13       		.byte	19
 651 0014 14       		.byte	20
 652 0015 15       		.byte	21
 653 0016 16       		.byte	22
 654 0017 17       		.byte	23
 655 0018 18       		.byte	24
 656 0019 19       		.byte	25
 657 001a 1B       		.byte	27
 658 001b 1C       		.byte	28
 659 001c 1D       		.byte	29
 660 001d 1E       		.byte	30
 661 001e 1F       		.byte	31
 662 001f 20       		.byte	32
 663 0020 21       		.byte	33
 664 0021 22       		.byte	34
 665 0022 23       		.byte	35
 666 0023 25       		.byte	37
 667 0024 26       		.byte	38
 668 0025 27       		.byte	39
 669 0026 28       		.byte	40
 670 0027 29       		.byte	41
 671 0028 2A       		.byte	42
 672 0029 2B       		.byte	43
ARM GAS  C:\Users\mahe\AppData\Local\Temp\ccz9CRYC.s 			page 17


 673 002a 2E       		.byte	46
 674 002b 2F       		.byte	47
 675 002c 30       		.byte	48
 676 002d 31       		.byte	49
 677 002e 32       		.byte	50
 678 002f 33       		.byte	51
 679 0030 34       		.byte	52
 680 0031 35       		.byte	53
 681              		.text
 682              	.Letext0:
 683              		.file 2 "t_udtypes.h"