ARM GAS  C:\Users\mahe\AppData\Local\Temp\cc8eOIj4.s 			page 1


   1              		.syntax unified
   2              		.cpu cortex-m0
   3              		.fpu softvfp
   4              		.eabi_attribute 20, 1
   5              		.eabi_attribute 21, 1
   6              		.eabi_attribute 23, 3
   7              		.eabi_attribute 24, 1
   8              		.eabi_attribute 25, 1
   9              		.eabi_attribute 26, 1
  10              		.eabi_attribute 30, 1
  11              		.eabi_attribute 34, 0
  12              		.eabi_attribute 18, 4
  13              		.thumb
  14              		.syntax unified
  15              		.file	"t_INTR.c"
  16              		.text
  17              	.Ltext0:
  18              		.cfi_sections	.debug_frame
  19              		.section	.text.INT_Disable,"ax",%progbits
  20              		.align	2
  21              		.global	INT_Disable
  22              		.code	16
  23              		.thumb_func
  24              		.type	INT_Disable, %function
  25              	INT_Disable:
  26              	.LFB0:
  27              		.file 1 "t_INTR.c"
   1:t_INTR.c      **** #include "t_INTR.h"
   2:t_INTR.c      **** 
   3:t_INTR.c      **** void INT_Disable(t_uint8 IRQ_N)
   4:t_INTR.c      **** {
  28              		.loc 1 4 0
  29              		.cfi_startproc
  30              		@ args = 0, pretend = 0, frame = 0
  31              		@ frame_needed = 0, uses_anonymous_args = 0
  32              		@ link register save eliminated.
  33              	.LVL0:
   5:t_INTR.c      ****     *((t_reg32*)(0xe000e180u))=(((t_uint32)0x01u) << IRQ_N);
  34              		.loc 1 5 0
  35 0000 0123     		movs	r3, #1
  36 0002 8340     		lsls	r3, r3, r0
  37 0004 014A     		ldr	r2, .L2
  38 0006 1360     		str	r3, [r2]
   6:t_INTR.c      **** }
  39              		.loc 1 6 0
  40              		@ sp needed
  41 0008 7047     		bx	lr
  42              	.L3:
  43 000a C046     		.align	2
  44              	.L2:
  45 000c 80E100E0 		.word	-536813184
  46              		.cfi_endproc
  47              	.LFE0:
  48              		.size	INT_Disable, .-INT_Disable
  49              		.section	.text.INT_Enable,"ax",%progbits
  50              		.align	2
  51              		.global	INT_Enable
ARM GAS  C:\Users\mahe\AppData\Local\Temp\cc8eOIj4.s 			page 2


  52              		.code	16
  53              		.thumb_func
  54              		.type	INT_Enable, %function
  55              	INT_Enable:
  56              	.LFB1:
   7:t_INTR.c      **** 
   8:t_INTR.c      **** void INT_Enable(t_uint8 IRQ_N)
   9:t_INTR.c      **** {
  57              		.loc 1 9 0
  58              		.cfi_startproc
  59              		@ args = 0, pretend = 0, frame = 0
  60              		@ frame_needed = 0, uses_anonymous_args = 0
  61              		@ link register save eliminated.
  62              	.LVL1:
  10:t_INTR.c      ****     *((t_reg32*)(0xe000e100u))=(((t_uint32)0x01u) << IRQ_N);
  63              		.loc 1 10 0
  64 0000 0123     		movs	r3, #1
  65 0002 8340     		lsls	r3, r3, r0
  66 0004 014A     		ldr	r2, .L5
  67 0006 1360     		str	r3, [r2]
  11:t_INTR.c      **** }
  68              		.loc 1 11 0
  69              		@ sp needed
  70 0008 7047     		bx	lr
  71              	.L6:
  72 000a C046     		.align	2
  73              	.L5:
  74 000c 00E100E0 		.word	-536813312
  75              		.cfi_endproc
  76              	.LFE1:
  77              		.size	INT_Enable, .-INT_Enable
  78              		.section	.text.INT_Set_Priority,"ax",%progbits
  79              		.align	2
  80              		.global	INT_Set_Priority
  81              		.code	16
  82              		.thumb_func
  83              		.type	INT_Set_Priority, %function
  84              	INT_Set_Priority:
  85              	.LFB2:
  12:t_INTR.c      **** 
  13:t_INTR.c      **** void INT_Set_Priority(t_uint8 IRQ_N,t_uint8 priority)
  14:t_INTR.c      **** {
  86              		.loc 1 14 0
  87              		.cfi_startproc
  88              		@ args = 0, pretend = 0, frame = 0
  89              		@ frame_needed = 0, uses_anonymous_args = 0
  90              	.LVL2:
  91 0000 10B5     		push	{r4, lr}
  92              		.cfi_def_cfa_offset 8
  93              		.cfi_offset 4, -8
  94              		.cfi_offset 14, -4
  15:t_INTR.c      ****     t_uint8 priorityOffset = ((IRQ_N % 4u) * 8u) + 6u;
  95              		.loc 1 15 0
  96 0002 0323     		movs	r3, #3
  97 0004 0340     		ands	r3, r0
  98 0006 DB00     		lsls	r3, r3, #3
  99 0008 0633     		adds	r3, r3, #6
ARM GAS  C:\Users\mahe\AppData\Local\Temp\cc8eOIj4.s 			page 3


 100              	.LVL3:
  16:t_INTR.c      ****     t_uint32 PRIO_REG = (0xe000e400u+((t_uint32)((IRQ_N/4)*4)));
 101              		.loc 1 16 0
 102 000a 8008     		lsrs	r0, r0, #2
 103              	.LVL4:
 104 000c 8000     		lsls	r0, r0, #2
 105 000e 054A     		ldr	r2, .L8
 106 0010 9446     		mov	ip, r2
 107 0012 6044     		add	r0, r0, ip
 108              	.LVL5:
  17:t_INTR.c      ****     *(t_reg32*)(PRIO_REG)= (*(t_reg32 *) (PRIO_REG) & (~((t_uint32)0x3u<<priorityOffset)))|((t_uint
 109              		.loc 1 17 0
 110 0014 0268     		ldr	r2, [r0]
 111 0016 0324     		movs	r4, #3
 112 0018 9C40     		lsls	r4, r4, r3
 113 001a A243     		bics	r2, r4
 114 001c 9940     		lsls	r1, r1, r3
 115              	.LVL6:
 116 001e 1143     		orrs	r1, r2
 117 0020 0160     		str	r1, [r0]
  18:t_INTR.c      **** }
 118              		.loc 1 18 0
 119              		@ sp needed
 120 0022 10BD     		pop	{r4, pc}
 121              	.L9:
 122              		.align	2
 123              	.L8:
 124 0024 00E400E0 		.word	-536812544
 125              		.cfi_endproc
 126              	.LFE2:
 127              		.size	INT_Set_Priority, .-INT_Set_Priority
 128              		.section	.text.INT_Set_ISR_Address,"ax",%progbits
 129              		.align	2
 130              		.global	INT_Set_ISR_Address
 131              		.code	16
 132              		.thumb_func
 133              		.type	INT_Set_ISR_Address, %function
 134              	INT_Set_ISR_Address:
 135              	.LFB3:
  19:t_INTR.c      **** 
  20:t_INTR.c      **** void INT_Set_ISR_Address(t_uint8 IRQ_N,t_uint32 Address)
  21:t_INTR.c      **** {
 136              		.loc 1 21 0
 137              		.cfi_startproc
 138              		@ args = 0, pretend = 0, frame = 0
 139              		@ frame_needed = 0, uses_anonymous_args = 0
 140              		@ link register save eliminated.
 141              	.LVL7:
  22:t_INTR.c      ****     *((t_reg32*)(0x20000040u+(t_uint32)(IRQ_N*4)))= Address;
 142              		.loc 1 22 0
 143 0000 8000     		lsls	r0, r0, #2
 144              	.LVL8:
 145 0002 024B     		ldr	r3, .L11
 146 0004 9C46     		mov	ip, r3
 147 0006 6044     		add	r0, r0, ip
 148 0008 0160     		str	r1, [r0]
  23:t_INTR.c      **** }
ARM GAS  C:\Users\mahe\AppData\Local\Temp\cc8eOIj4.s 			page 4


 149              		.loc 1 23 0
 150              		@ sp needed
 151 000a 7047     		bx	lr
 152              	.L12:
 153              		.align	2
 154              	.L11:
 155 000c 40000020 		.word	536870976
 156              		.cfi_endproc
 157              	.LFE3:
 158              		.size	INT_Set_ISR_Address, .-INT_Set_ISR_Address
 159              		.text
 160              	.Letext0:
 161              		.file 2 "t_udtypes.h"