ARM GAS  C:\Users\mahe\AppData\Local\Temp\ccpGYWdv.s 			page 1


   1              		.syntax unified
   2              		.cpu cortex-m0
   3              		.fpu softvfp
   4              		.eabi_attribute 20, 1
   5              		.eabi_attribute 21, 1
   6              		.eabi_attribute 23, 3
   7              		.eabi_attribute 24, 1
   8              		.eabi_attribute 25, 1
   9              		.eabi_attribute 26, 1
  10              		.eabi_attribute 30, 1
  11              		.eabi_attribute 34, 0
  12              		.eabi_attribute 18, 4
  13              		.thumb
  14              		.syntax unified
  15              		.file	"t_WDT.c"
  16              		.text
  17              	.Ltext0:
  18              		.cfi_sections	.debug_frame
  19              		.section	.text.t_GetResetReason,"ax",%progbits
  20              		.align	2
  21              		.global	t_GetResetReason
  22              		.code	16
  23              		.thumb_func
  24              		.type	t_GetResetReason, %function
  25              	t_GetResetReason:
  26              	.LFB0:
  27              		.file 1 "t_WDT.c"
   1:t_WDT.c       **** /* ========================================
   2:t_WDT.c       ****  * Name : Watchdog timer
   3:t_WDT.c       ****  * Date : 20.09.18
   4:t_WDT.c       ****  * Author : Kartikey Agrawal
   5:t_WDT.c       ****  * Details : Source file for Watchdog Timer
   6:t_WDT.c       ****  * 			 Refer to Architecture Technical Reference Manual for futher details
   7:t_WDT.c       ****  * 			 https://kartikey0303.github.io/pdf/Register_TRM.pdf
   8:t_WDT.c       ****  * 			 https://kartikey0303.github.io/pdf/Arch_TRM.pdf		
   9:t_WDT.c       **** */
  10:t_WDT.c       **** 
  11:t_WDT.c       **** #include "t_WDT.h"
  12:t_WDT.c       **** #include "t_CLOCK.h"
  13:t_WDT.c       **** 
  14:t_WDT.c       **** 
  15:t_WDT.c       **** //https://kartikey0303.github.io/pdf/Register_TRM.pdf#page=806
  16:t_WDT.c       **** t_uint32 t_GetResetReason(t_uint32 t_reason)
  17:t_WDT.c       **** {
  28              		.loc 1 17 0
  29              		.cfi_startproc
  30              		@ args = 0, pretend = 0, frame = 0
  31              		@ frame_needed = 0, uses_anonymous_args = 0
  32              		@ link register save eliminated.
  33              	.LVL0:
  34 0000 0200     		movs	r2, r0
  18:t_WDT.c       **** 	t_uint32 t_returnStatus;
  19:t_WDT.c       **** 
  20:t_WDT.c       **** 	t_reason &= (((t_uint32)1u << 0) | ((t_uint32)1u << 3) | ((t_uint32)1u << 4));
  35              		.loc 1 20 0
  36 0002 1920     		movs	r0, #25
  37              	.LVL1:
ARM GAS  C:\Users\mahe\AppData\Local\Temp\ccpGYWdv.s 			page 2


  38 0004 0240     		ands	r2, r0
  39              	.LVL2:
  21:t_WDT.c       **** 	t_returnStatus = (*(t_reg32 *) REG_RES_CAUSE) &(((t_uint32)1u << 0) | ((t_uint32)1u << 3)| ((t_uin
  40              		.loc 1 21 0
  41 0006 0249     		ldr	r1, .L2
  42 0008 0B68     		ldr	r3, [r1]
  43 000a 1840     		ands	r0, r3
  44              	.LVL3:
  22:t_WDT.c       **** 	(*(t_reg32 *)REG_RES_CAUSE) = t_reason;
  45              		.loc 1 22 0
  46 000c 0A60     		str	r2, [r1]
  23:t_WDT.c       **** 	
  24:t_WDT.c       **** 	return (t_returnStatus);
  25:t_WDT.c       **** }
  47              		.loc 1 25 0
  48              		@ sp needed
  49 000e 7047     		bx	lr
  50              	.L3:
  51              		.align	2
  52              	.L2:
  53 0010 00030B40 		.word	1074463488
  54              		.cfi_endproc
  55              	.LFE0:
  56              		.size	t_GetResetReason, .-t_GetResetReason
  57              		.section	.text.t_WDT_SetMatch,"ax",%progbits
  58              		.align	2
  59              		.global	t_WDT_SetMatch
  60              		.code	16
  61              		.thumb_func
  62              		.type	t_WDT_SetMatch, %function
  63              	t_WDT_SetMatch:
  64              	.LFB1:
  26:t_WDT.c       **** 
  27:t_WDT.c       **** void t_WDT_SetMatch(t_uint32 t_CounterNo, t_uint32 t_Match)
  28:t_WDT.c       **** {
  65              		.loc 1 28 0
  66              		.cfi_startproc
  67              		@ args = 0, pretend = 0, frame = 0
  68              		@ frame_needed = 0, uses_anonymous_args = 0
  69              	.LVL4:
  70 0000 70B5     		push	{r4, r5, r6, lr}
  71              		.cfi_def_cfa_offset 16
  72              		.cfi_offset 4, -16
  73              		.cfi_offset 5, -12
  74              		.cfi_offset 6, -8
  75              		.cfi_offset 14, -4
  76 0002 0500     		movs	r5, r0
  77 0004 0C00     		movs	r4, r1
  29:t_WDT.c       **** 	t_Delay_us(100);	
  78              		.loc 1 29 0
  79 0006 6420     		movs	r0, #100
  80              	.LVL5:
  81 0008 FFF7FEFF 		bl	t_Delay_us
  82              	.LVL6:
  30:t_WDT.c       **** 	(*(t_reg32*)REG_WDT_MATCH) = ((*(t_reg32*)REG_WDT_MATCH) & (~((0x0000FFFF) << (t_CounterNo * 16)))
  83              		.loc 1 30 0
  84 000c 0549     		ldr	r1, .L5
ARM GAS  C:\Users\mahe\AppData\Local\Temp\ccpGYWdv.s 			page 3


  85 000e 0B68     		ldr	r3, [r1]
  86 0010 2D01     		lsls	r5, r5, #4
  87              	.LVL7:
  88 0012 054A     		ldr	r2, .L5+4
  89 0014 AA40     		lsls	r2, r2, r5
  90 0016 9343     		bics	r3, r2
  91 0018 1C43     		orrs	r4, r3
  92              	.LVL8:
  93 001a 0C60     		str	r4, [r1]
  31:t_WDT.c       **** 	t_Delay_us(35u);
  94              		.loc 1 31 0
  95 001c 2320     		movs	r0, #35
  96 001e FFF7FEFF 		bl	t_Delay_us
  97              	.LVL9:
  32:t_WDT.c       **** }
  98              		.loc 1 32 0
  99              		@ sp needed
 100 0022 70BD     		pop	{r4, r5, r6, pc}
 101              	.L6:
 102              		.align	2
 103              	.L5:
 104 0024 08020B40 		.word	1074463240
 105 0028 FFFF0000 		.word	65535
 106              		.cfi_endproc
 107              	.LFE1:
 108              		.size	t_WDT_SetMatch, .-t_WDT_SetMatch
 109              		.section	.text.t_WDT_ClearInterrupt,"ax",%progbits
 110              		.align	2
 111              		.global	t_WDT_ClearInterrupt
 112              		.code	16
 113              		.thumb_func
 114              		.type	t_WDT_ClearInterrupt, %function
 115              	t_WDT_ClearInterrupt:
 116              	.LFB2:
  33:t_WDT.c       **** 
  34:t_WDT.c       **** void t_WDT_ClearInterrupt(t_uint32 t_CounterMask)
  35:t_WDT.c       **** {
 117              		.loc 1 35 0
 118              		.cfi_startproc
 119              		@ args = 0, pretend = 0, frame = 0
 120              		@ frame_needed = 0, uses_anonymous_args = 0
 121              	.LVL10:
 122 0000 10B5     		push	{r4, lr}
 123              		.cfi_def_cfa_offset 8
 124              		.cfi_offset 4, -8
 125              		.cfi_offset 14, -4
 126 0002 0400     		movs	r4, r0
  36:t_WDT.c       **** 	t_uint8 t_interruptState;      
  37:t_WDT.c       **** 	t_interruptState = t_EnterCriticalSection();
 127              		.loc 1 37 0
 128 0004 FFF7FEFF 		bl	t_EnterCriticalSection
 129              	.LVL11:
  38:t_WDT.c       **** 	t_CounterMask &= (((t_uint32)0x01u << 2u) |((t_uint32)0x01u << 10u) |((t_uint32)0x01u << 18u));
 130              		.loc 1 38 0
 131 0008 054B     		ldr	r3, .L8
 132 000a 1C40     		ands	r4, r3
 133              	.LVL12:
ARM GAS  C:\Users\mahe\AppData\Local\Temp\ccpGYWdv.s 			page 4


  39:t_WDT.c       **** 	(*(t_reg32 *)REG_WDT_CONTROL) = ((*(t_reg32 *)REG_WDT_CONTROL) & ~(((t_uint32)0x01u << 2u) |((t_ui
 134              		.loc 1 39 0
 135 000c 0549     		ldr	r1, .L8+4
 136 000e 0B68     		ldr	r3, [r1]
 137 0010 054A     		ldr	r2, .L8+8
 138 0012 1340     		ands	r3, r2
 139 0014 2343     		orrs	r3, r4
 140 0016 0B60     		str	r3, [r1]
  40:t_WDT.c       **** 	(void)(*(t_reg32 *) REG_WDT_CONTROL);
 141              		.loc 1 40 0
 142 0018 0B68     		ldr	r3, [r1]
  41:t_WDT.c       **** 	t_ExitCriticalSection(t_interruptState);
 143              		.loc 1 41 0
 144 001a FFF7FEFF 		bl	t_ExitCriticalSection
 145              	.LVL13:
  42:t_WDT.c       **** }
 146              		.loc 1 42 0
 147              		@ sp needed
 148              	.LVL14:
 149 001e 10BD     		pop	{r4, pc}
 150              	.L9:
 151              		.align	2
 152              	.L8:
 153 0020 04040400 		.word	263172
 154 0024 10020B40 		.word	1074463248
 155 0028 FBFBFBFF 		.word	-263173
 156              		.cfi_endproc
 157              	.LFE2:
 158              		.size	t_WDT_ClearInterrupt, .-t_WDT_ClearInterrupt
 159              		.section	.text.t_WDT_GetEnabledStatus,"ax",%progbits
 160              		.align	2
 161              		.global	t_WDT_GetEnabledStatus
 162              		.code	16
 163              		.thumb_func
 164              		.type	t_WDT_GetEnabledStatus, %function
 165              	t_WDT_GetEnabledStatus:
 166              	.LFB4:
  43:t_WDT.c       **** 
  44:t_WDT.c       **** void t_WDT_Enable(t_uint32 t_CounterNo)
  45:t_WDT.c       **** {
  46:t_WDT.c       **** 	(*(t_reg32*) REG_WDT_CONTROL) = (*(t_reg32*)REG_WDT_CONTROL) | ((0x00000001) << (t_CounterNo * 0x0
  47:t_WDT.c       **** 	
  48:t_WDT.c       **** 	if(t_CounterNo == 0x00)
  49:t_WDT.c       **** 	{
  50:t_WDT.c       **** 		while(t_WDT_GetEnabledStatus(0x00) == 0)
  51:t_WDT.c       **** 		{
  52:t_WDT.c       **** 			
  53:t_WDT.c       **** 		}
  54:t_WDT.c       **** 	}
  55:t_WDT.c       **** 	if(t_CounterNo == 0x01)
  56:t_WDT.c       **** 	{
  57:t_WDT.c       **** 		while(t_WDT_GetEnabledStatus(0x01) == 0)
  58:t_WDT.c       **** 		{
  59:t_WDT.c       **** 			
  60:t_WDT.c       **** 		}
  61:t_WDT.c       **** 	}
  62:t_WDT.c       **** 	if(t_CounterNo == 0x02)
ARM GAS  C:\Users\mahe\AppData\Local\Temp\ccpGYWdv.s 			page 5


  63:t_WDT.c       **** 	{
  64:t_WDT.c       **** 		while(t_WDT_GetEnabledStatus(0x02) == 0)
  65:t_WDT.c       **** 		{
  66:t_WDT.c       **** 			
  67:t_WDT.c       **** 		}
  68:t_WDT.c       **** 	}
  69:t_WDT.c       **** }
  70:t_WDT.c       **** t_uint32 t_WDT_GetEnabledStatus(t_uint32 t_CounterNo)
  71:t_WDT.c       **** {
 167              		.loc 1 71 0
 168              		.cfi_startproc
 169              		@ args = 0, pretend = 0, frame = 0
 170              		@ frame_needed = 0, uses_anonymous_args = 0
 171              		@ link register save eliminated.
 172              	.LVL15:
  72:t_WDT.c       **** 	return (((*(t_reg32*) REG_WDT_CONTROL) >> ((0x08u * t_CounterNo) + 0x01u)) & 0x01u);
 173              		.loc 1 72 0
 174 0000 044B     		ldr	r3, .L11
 175 0002 1B68     		ldr	r3, [r3]
 176 0004 C000     		lsls	r0, r0, #3
 177              	.LVL16:
 178 0006 0130     		adds	r0, r0, #1
 179 0008 C340     		lsrs	r3, r3, r0
 180 000a 1800     		movs	r0, r3
 181 000c 0123     		movs	r3, #1
 182 000e 1840     		ands	r0, r3
  73:t_WDT.c       **** }
 183              		.loc 1 73 0
 184              		@ sp needed
 185 0010 7047     		bx	lr
 186              	.L12:
 187 0012 C046     		.align	2
 188              	.L11:
 189 0014 10020B40 		.word	1074463248
 190              		.cfi_endproc
 191              	.LFE4:
 192              		.size	t_WDT_GetEnabledStatus, .-t_WDT_GetEnabledStatus
 193              		.section	.text.t_WDT_Enable,"ax",%progbits
 194              		.align	2
 195              		.global	t_WDT_Enable
 196              		.code	16
 197              		.thumb_func
 198              		.type	t_WDT_Enable, %function
 199              	t_WDT_Enable:
 200              	.LFB3:
  45:t_WDT.c       **** 	(*(t_reg32*) REG_WDT_CONTROL) = (*(t_reg32*)REG_WDT_CONTROL) | ((0x00000001) << (t_CounterNo * 0x0
 201              		.loc 1 45 0
 202              		.cfi_startproc
 203              		@ args = 0, pretend = 0, frame = 0
 204              		@ frame_needed = 0, uses_anonymous_args = 0
 205              	.LVL17:
 206 0000 10B5     		push	{r4, lr}
 207              		.cfi_def_cfa_offset 8
 208              		.cfi_offset 4, -8
 209              		.cfi_offset 14, -4
 210 0002 0400     		movs	r4, r0
  46:t_WDT.c       **** 	
ARM GAS  C:\Users\mahe\AppData\Local\Temp\ccpGYWdv.s 			page 6


 211              		.loc 1 46 0
 212 0004 0E49     		ldr	r1, .L20
 213 0006 0A68     		ldr	r2, [r1]
 214 0008 C000     		lsls	r0, r0, #3
 215              	.LVL18:
 216 000a 0123     		movs	r3, #1
 217 000c 8340     		lsls	r3, r3, r0
 218 000e 1343     		orrs	r3, r2
 219 0010 0B60     		str	r3, [r1]
  48:t_WDT.c       **** 	{
 220              		.loc 1 48 0
 221 0012 002C     		cmp	r4, #0
 222 0014 04D1     		bne	.L14
 223              	.L15:
  50:t_WDT.c       **** 		{
 224              		.loc 1 50 0 discriminator 1
 225 0016 0020     		movs	r0, #0
 226 0018 FFF7FEFF 		bl	t_WDT_GetEnabledStatus
 227              	.LVL19:
 228 001c 0028     		cmp	r0, #0
 229 001e FAD0     		beq	.L15
 230              	.L14:
  55:t_WDT.c       **** 	{
 231              		.loc 1 55 0
 232 0020 012C     		cmp	r4, #1
 233 0022 04D1     		bne	.L16
 234              	.L17:
  57:t_WDT.c       **** 		{
 235              		.loc 1 57 0 discriminator 1
 236 0024 0120     		movs	r0, #1
 237 0026 FFF7FEFF 		bl	t_WDT_GetEnabledStatus
 238              	.LVL20:
 239 002a 0028     		cmp	r0, #0
 240 002c FAD0     		beq	.L17
 241              	.L16:
  62:t_WDT.c       **** 	{
 242              		.loc 1 62 0
 243 002e 022C     		cmp	r4, #2
 244 0030 04D1     		bne	.L13
 245              	.L19:
  64:t_WDT.c       **** 		{
 246              		.loc 1 64 0 discriminator 1
 247 0032 0220     		movs	r0, #2
 248 0034 FFF7FEFF 		bl	t_WDT_GetEnabledStatus
 249              	.LVL21:
 250 0038 0028     		cmp	r0, #0
 251 003a FAD0     		beq	.L19
 252              	.L13:
  69:t_WDT.c       **** t_uint32 t_WDT_GetEnabledStatus(t_uint32 t_CounterNo)
 253              		.loc 1 69 0
 254              		@ sp needed
 255              	.LVL22:
 256 003c 10BD     		pop	{r4, pc}
 257              	.L21:
 258 003e C046     		.align	2
 259              	.L20:
 260 0040 10020B40 		.word	1074463248
ARM GAS  C:\Users\mahe\AppData\Local\Temp\ccpGYWdv.s 			page 7


 261              		.cfi_endproc
 262              	.LFE3:
 263              		.size	t_WDT_Enable, .-t_WDT_Enable
 264              		.section	.text.t_WDT_SetCascade,"ax",%progbits
 265              		.align	2
 266              		.global	t_WDT_SetCascade
 267              		.code	16
 268              		.thumb_func
 269              		.type	t_WDT_SetCascade, %function
 270              	t_WDT_SetCascade:
 271              	.LFB5:
  74:t_WDT.c       **** 
  75:t_WDT.c       **** void t_WDT_SetCascade(t_uint32 t_CascadeMask)
  76:t_WDT.c       **** {
 272              		.loc 1 76 0
 273              		.cfi_startproc
 274              		@ args = 0, pretend = 0, frame = 0
 275              		@ frame_needed = 0, uses_anonymous_args = 0
 276              	.LVL23:
 277 0000 10B5     		push	{r4, lr}
 278              		.cfi_def_cfa_offset 8
 279              		.cfi_offset 4, -8
 280              		.cfi_offset 14, -4
  77:t_WDT.c       **** 	t_uint32 t_CounterEnableStatus = t_WDT_GetEnabledStatus(0x00);
 281              		.loc 1 77 0
 282 0002 0020     		movs	r0, #0
 283              	.LVL24:
 284 0004 FFF7FEFF 		bl	t_WDT_GetEnabledStatus
 285              	.LVL25:
  78:t_WDT.c       **** 	
  79:t_WDT.c       **** 	//Counter must not be enables before setting the Cascading
  80:t_WDT.c       **** 	if(t_CounterEnableStatus == 0)
 286              		.loc 1 80 0
 287 0008 0028     		cmp	r0, #0
 288 000a 04D1     		bne	.L22
  81:t_WDT.c       **** 	{
  82:t_WDT.c       **** 		
  83:t_WDT.c       **** 		(*(t_reg32*)REG_WDT_CONFIG) = (*(t_reg32*)REG_WDT_CONFIG) & ((t_uint32)(~(((t_uint32)(0x01u) << 3
 289              		.loc 1 83 0
 290 000c 024A     		ldr	r2, .L24
 291 000e 1168     		ldr	r1, [r2]
 292 0010 024B     		ldr	r3, .L24+4
 293 0012 0B40     		ands	r3, r1
 294 0014 1360     		str	r3, [r2]
 295              	.L22:
  84:t_WDT.c       **** 		
  85:t_WDT.c       **** 	}
  86:t_WDT.c       **** }
 296              		.loc 1 86 0
 297              		@ sp needed
 298 0016 10BD     		pop	{r4, pc}
 299              	.L25:
 300              		.align	2
 301              	.L24:
 302 0018 0C020B40 		.word	1074463244
 303 001c F7F7FFFF 		.word	-2057
 304              		.cfi_endproc
ARM GAS  C:\Users\mahe\AppData\Local\Temp\ccpGYWdv.s 			page 8


 305              	.LFE5:
 306              		.size	t_WDT_SetCascade, .-t_WDT_SetCascade
 307              		.section	.text.t_WDT_SetClearOnMatch,"ax",%progbits
 308              		.align	2
 309              		.global	t_WDT_SetClearOnMatch
 310              		.code	16
 311              		.thumb_func
 312              		.type	t_WDT_SetClearOnMatch, %function
 313              	t_WDT_SetClearOnMatch:
 314              	.LFB6:
  87:t_WDT.c       **** 
  88:t_WDT.c       **** void t_WDT_SetClearOnMatch(t_uint32 t_CounterNum, t_uint32 t_Enable)
  89:t_WDT.c       **** {
 315              		.loc 1 89 0
 316              		.cfi_startproc
 317              		@ args = 0, pretend = 0, frame = 0
 318              		@ frame_needed = 0, uses_anonymous_args = 0
 319              	.LVL26:
 320 0000 70B5     		push	{r4, r5, r6, lr}
 321              		.cfi_def_cfa_offset 16
 322              		.cfi_offset 4, -16
 323              		.cfi_offset 5, -12
 324              		.cfi_offset 6, -8
 325              		.cfi_offset 14, -4
 326 0002 0400     		movs	r4, r0
 327 0004 0D00     		movs	r5, r1
  90:t_WDT.c       **** 	t_uint32 t_ConfigRegValue;
  91:t_WDT.c       **** 
  92:t_WDT.c       **** 	if(0u == t_WDT_GetEnabledStatus(t_CounterNum))
 328              		.loc 1 92 0
 329 0006 FFF7FEFF 		bl	t_WDT_GetEnabledStatus
 330              	.LVL27:
 331 000a 0028     		cmp	r0, #0
 332 000c 09D1     		bne	.L26
  93:t_WDT.c       **** 	{
  94:t_WDT.c       **** 		t_ConfigRegValue = (*(t_reg32 *) REG_WDT_CONFIG) & ~(((t_uint32)((t_uint32)1u << (0x02u+(t_Counte
 333              		.loc 1 94 0
 334 000e 0549     		ldr	r1, .L28
 335 0010 0B68     		ldr	r3, [r1]
 336 0012 E400     		lsls	r4, r4, #3
 337              	.LVL28:
 338 0014 0234     		adds	r4, r4, #2
 339 0016 0122     		movs	r2, #1
 340 0018 A240     		lsls	r2, r2, r4
 341 001a 9343     		bics	r3, r2
 342              	.LVL29:
  95:t_WDT.c       **** 		t_ConfigRegValue|= (t_uint32)(t_Enable << (0x02u+(t_CounterNum * 0x08u)));
 343              		.loc 1 95 0
 344 001c A540     		lsls	r5, r5, r4
 345              	.LVL30:
 346 001e 1D43     		orrs	r5, r3
 347              	.LVL31:
  96:t_WDT.c       **** 		*(t_reg32 *)REG_WDT_CONFIG = t_ConfigRegValue;
 348              		.loc 1 96 0
 349 0020 0D60     		str	r5, [r1]
 350              	.LVL32:
 351              	.L26:
ARM GAS  C:\Users\mahe\AppData\Local\Temp\ccpGYWdv.s 			page 9


  97:t_WDT.c       **** 	}
  98:t_WDT.c       **** }
 352              		.loc 1 98 0
 353              		@ sp needed
 354 0022 70BD     		pop	{r4, r5, r6, pc}
 355              	.L29:
 356              		.align	2
 357              	.L28:
 358 0024 0C020B40 		.word	1074463244
 359              		.cfi_endproc
 360              	.LFE6:
 361              		.size	t_WDT_SetClearOnMatch, .-t_WDT_SetClearOnMatch
 362              		.section	.text.t_WDT_SetMode,"ax",%progbits
 363              		.align	2
 364              		.global	t_WDT_SetMode
 365              		.code	16
 366              		.thumb_func
 367              		.type	t_WDT_SetMode, %function
 368              	t_WDT_SetMode:
 369              	.LFB7:
  99:t_WDT.c       **** 
 100:t_WDT.c       **** void t_WDT_SetMode(t_uint32 t_CounterNum, t_uint32 t_Mode)
 101:t_WDT.c       **** {
 370              		.loc 1 101 0
 371              		.cfi_startproc
 372              		@ args = 0, pretend = 0, frame = 0
 373              		@ frame_needed = 0, uses_anonymous_args = 0
 374              	.LVL33:
 375 0000 70B5     		push	{r4, r5, r6, lr}
 376              		.cfi_def_cfa_offset 16
 377              		.cfi_offset 4, -16
 378              		.cfi_offset 5, -12
 379              		.cfi_offset 6, -8
 380              		.cfi_offset 14, -4
 381 0002 0500     		movs	r5, r0
 382 0004 0C00     		movs	r4, r1
 102:t_WDT.c       **** 	t_uint32 t_ConfigRegValue; 
 103:t_WDT.c       **** 	if(0u == t_WDT_GetEnabledStatus(t_CounterNum))
 383              		.loc 1 103 0
 384 0006 FFF7FEFF 		bl	t_WDT_GetEnabledStatus
 385              	.LVL34:
 386 000a 0028     		cmp	r0, #0
 387 000c 0AD1     		bne	.L30
 104:t_WDT.c       **** 	{
 105:t_WDT.c       **** 		t_ConfigRegValue = (*(t_reg32 *)REG_WDT_CONFIG) & (~((t_uint32)((t_uint32)0x03u << (t_CounterNum 
 388              		.loc 1 105 0
 389 000e 064A     		ldr	r2, .L32
 390 0010 1368     		ldr	r3, [r2]
 391 0012 ED00     		lsls	r5, r5, #3
 392              	.LVL35:
 393 0014 0321     		movs	r1, #3
 394 0016 0800     		movs	r0, r1
 395 0018 A840     		lsls	r0, r0, r5
 396 001a 8343     		bics	r3, r0
 397              	.LVL36:
 106:t_WDT.c       **** 		t_ConfigRegValue |= (t_uint32)((t_Mode & (t_uint32)(0x03u)) << (t_CounterNum * 0x08));
 398              		.loc 1 106 0
ARM GAS  C:\Users\mahe\AppData\Local\Temp\ccpGYWdv.s 			page 10


 399 001c 0C40     		ands	r4, r1
 400              	.LVL37:
 401 001e AC40     		lsls	r4, r4, r5
 402 0020 1C43     		orrs	r4, r3
 403              	.LVL38:
 107:t_WDT.c       **** 		(*(t_reg32 *)REG_WDT_CONFIG) = t_ConfigRegValue;
 404              		.loc 1 107 0
 405 0022 1460     		str	r4, [r2]
 406              	.LVL39:
 407              	.L30:
 108:t_WDT.c       **** 	}
 109:t_WDT.c       **** }
 408              		.loc 1 109 0
 409              		@ sp needed
 410 0024 70BD     		pop	{r4, r5, r6, pc}
 411              	.L33:
 412 0026 C046     		.align	2
 413              	.L32:
 414 0028 0C020B40 		.word	1074463244
 415              		.cfi_endproc
 416              	.LFE7:
 417              		.size	t_WDT_SetMode, .-t_WDT_SetMode
 418              		.text
 419              	.Letext0:
 420              		.file 2 "t_udtypes.h"
 421              		.file 3 "t_CLOCK.h"