ARM GAS  C:\Users\Mahe\AppData\Local\Temp\ccL7tHJz.s 			page 1


   1              		.syntax unified
   2              		.cpu cortex-m0
   3              		.fpu softvfp
   4              		.eabi_attribute 20, 1
   5              		.eabi_attribute 21, 1
   6              		.eabi_attribute 23, 3
   7              		.eabi_attribute 24, 1
   8              		.eabi_attribute 25, 1
   9              		.eabi_attribute 26, 1
  10              		.eabi_attribute 30, 1
  11              		.eabi_attribute 34, 0
  12              		.eabi_attribute 18, 4
  13              		.thumb
  14              		.syntax unified
  15              		.file	"main.c"
  16              		.text
  17              	.Ltext0:
  18              		.cfi_sections	.debug_frame
  19              		.section	.text.IND_ISR,"ax",%progbits
  20              		.align	2
  21              		.global	IND_ISR
  22              		.code	16
  23              		.thumb_func
  24              		.type	IND_ISR, %function
  25              	IND_ISR:
  26              	.LFB35:
  27              		.file 1 "main.c"
   1:main.c        **** /* ========================================
   2:main.c        ****  *
   3:main.c        ****  * Copyright YOUR COMPANY, THE YEAR
   4:main.c        ****  * All Rights Reserved
   5:main.c        ****  * UNPUBLISHED, LICENSED SOFTWARE.
   6:main.c        ****  *
   7:main.c        ****  * CONFIDENTIAL AND PROPRIETARY INFORMATION
   8:main.c        ****  * WHICH IS THE PROPERTY OF your company.
   9:main.c        ****  *
  10:main.c        ****  * ========================================
  11:main.c        **** */
  12:main.c        **** #include "project.h"
  13:main.c        **** 
  14:main.c        **** int main(void)
  15:main.c        **** {
  16:main.c        ****     CyGlobalIntEnable; /* Enable global interrupts. */
  17:main.c        ****     CY_ISR_PROTO(IND_ISR);
  18:main.c        ****     CY_ISR_PROTO(IND_1_ISR);
  19:main.c        **** 
  20:main.c        ****     Timer_1_Start();
  21:main.c        ****     isr_1_StartEx(IND_ISR);
  22:main.c        ****     isr_2_StartEx(IND_1_ISR);
  23:main.c        ****     /* Place your initialization/startup code here (e.g. MyInst_Start()) */
  24:main.c        **** 
  25:main.c        ****     for(;;)
  26:main.c        ****     {
  27:main.c        ****         /* Place your application code here. */
  28:main.c        ****     }
  29:main.c        **** }
  30:main.c        **** CY_ISR(IND_ISR)
ARM GAS  C:\Users\Mahe\AppData\Local\Temp\ccL7tHJz.s 			page 2


  31:main.c        **** 	{
  28              		.loc 1 31 0
  29              		.cfi_startproc
  30              		@ args = 0, pretend = 0, frame = 0
  31              		@ frame_needed = 0, uses_anonymous_args = 0
  32 0000 10B5     		push	{r4, lr}
  33              		.cfi_def_cfa_offset 8
  34              		.cfi_offset 4, -8
  35              		.cfi_offset 14, -4
  32:main.c        ****    	Timer_1_ClearInterrupt(Timer_1_INTR_MASK_TC);
  36              		.loc 1 32 0
  37 0002 0120     		movs	r0, #1
  38 0004 FFF7FEFF 		bl	Timer_1_ClearInterrupt
  39              	.LVL0:
  33:main.c        ****     RED_LED_Write(0);
  40              		.loc 1 33 0
  41 0008 0020     		movs	r0, #0
  42 000a FFF7FEFF 		bl	RED_LED_Write
  43              	.LVL1:
  34:main.c        ****    	CyDelay(5000);
  44              		.loc 1 34 0
  45 000e 054C     		ldr	r4, .L2
  46 0010 2000     		movs	r0, r4
  47 0012 FFF7FEFF 		bl	CyDelay
  48              	.LVL2:
  35:main.c        ****     RED_LED_Write(1);
  49              		.loc 1 35 0
  50 0016 0120     		movs	r0, #1
  51 0018 FFF7FEFF 		bl	RED_LED_Write
  52              	.LVL3:
  36:main.c        ****     CyDelay(5000);
  53              		.loc 1 36 0
  54 001c 2000     		movs	r0, r4
  55 001e FFF7FEFF 		bl	CyDelay
  56              	.LVL4:
  37:main.c        ****     }
  57              		.loc 1 37 0
  58              		@ sp needed
  59 0022 10BD     		pop	{r4, pc}
  60              	.L3:
  61              		.align	2
  62              	.L2:
  63 0024 88130000 		.word	5000
  64              		.cfi_endproc
  65              	.LFE35:
  66              		.size	IND_ISR, .-IND_ISR
  67              		.section	.text.IND_1_ISR,"ax",%progbits
  68              		.align	2
  69              		.global	IND_1_ISR
  70              		.code	16
  71              		.thumb_func
  72              		.type	IND_1_ISR, %function
  73              	IND_1_ISR:
  74              	.LFB36:
  38:main.c        **** 
  39:main.c        ****     CY_ISR(IND_1_ISR)
  40:main.c        **** 	{
ARM GAS  C:\Users\Mahe\AppData\Local\Temp\ccL7tHJz.s 			page 3


  75              		.loc 1 40 0
  76              		.cfi_startproc
  77              		@ args = 0, pretend = 0, frame = 0
  78              		@ frame_needed = 0, uses_anonymous_args = 0
  79 0000 10B5     		push	{r4, lr}
  80              		.cfi_def_cfa_offset 8
  81              		.cfi_offset 4, -8
  82              		.cfi_offset 14, -4
  41:main.c        ****     	GREEN_LED_Write(0);
  83              		.loc 1 41 0
  84 0002 0020     		movs	r0, #0
  85 0004 FFF7FEFF 		bl	GREEN_LED_Write
  86              	.LVL5:
  42:main.c        ****     	CyDelay(500);
  87              		.loc 1 42 0
  88 0008 FA20     		movs	r0, #250
  89 000a 4000     		lsls	r0, r0, #1
  90 000c FFF7FEFF 		bl	CyDelay
  91              	.LVL6:
  43:main.c        ****     	GREEN_LED_Write(1);
  92              		.loc 1 43 0
  93 0010 0120     		movs	r0, #1
  94 0012 FFF7FEFF 		bl	GREEN_LED_Write
  95              	.LVL7:
  44:main.c        **** 	}
  96              		.loc 1 44 0
  97              		@ sp needed
  98 0016 10BD     		pop	{r4, pc}
  99              		.cfi_endproc
 100              	.LFE36:
 101              		.size	IND_1_ISR, .-IND_1_ISR
 102              		.section	.text.main,"ax",%progbits
 103              		.align	2
 104              		.global	main
 105              		.code	16
 106              		.thumb_func
 107              		.type	main, %function
 108              	main:
 109              	.LFB34:
  15:main.c        ****     CyGlobalIntEnable; /* Enable global interrupts. */
 110              		.loc 1 15 0
 111              		.cfi_startproc
 112              		@ Volatile: function does not return.
 113              		@ args = 0, pretend = 0, frame = 0
 114              		@ frame_needed = 0, uses_anonymous_args = 0
 115 0000 10B5     		push	{r4, lr}
 116              		.cfi_def_cfa_offset 8
 117              		.cfi_offset 4, -8
 118              		.cfi_offset 14, -4
  16:main.c        ****     CY_ISR_PROTO(IND_ISR);
 119              		.loc 1 16 0
 120              		.syntax divided
 121              	@ 16 "main.c" 1
 122 0002 62B6     		CPSIE   i
 123              	@ 0 "" 2
  20:main.c        ****     isr_1_StartEx(IND_ISR);
 124              		.loc 1 20 0
ARM GAS  C:\Users\Mahe\AppData\Local\Temp\ccL7tHJz.s 			page 4


 125              		.thumb
 126              		.syntax unified
 127 0004 FFF7FEFF 		bl	Timer_1_Start
 128              	.LVL8:
  21:main.c        ****     isr_2_StartEx(IND_1_ISR);
 129              		.loc 1 21 0
 130 0008 0348     		ldr	r0, .L7
 131 000a FFF7FEFF 		bl	isr_1_StartEx
 132              	.LVL9:
  22:main.c        ****     /* Place your initialization/startup code here (e.g. MyInst_Start()) */
 133              		.loc 1 22 0
 134 000e 0348     		ldr	r0, .L7+4
 135 0010 FFF7FEFF 		bl	isr_2_StartEx
 136              	.LVL10:
 137              	.L6:
 138 0014 FEE7     		b	.L6
 139              	.L8:
 140 0016 C046     		.align	2
 141              	.L7:
 142 0018 00000000 		.word	IND_ISR
 143 001c 00000000 		.word	IND_1_ISR
 144              		.cfi_endproc
 145              	.LFE34:
 146              		.size	main, .-main
 147              		.text
 148              	.Letext0:
 149              		.file 2 "Generated_Source\\PSoC4/Timer_1.h"
 150              		.file 3 "Generated_Source\\PSoC4/RED_LED.h"
 151              		.file 4 "Generated_Source\\PSoC4/CyLib.h"
 152              		.file 5 "Generated_Source\\PSoC4/GREEN_LED.h"
 153              		.file 6 "Generated_Source\\PSoC4/isr_1.h"
 154              		.file 7 "Generated_Source\\PSoC4/isr_2.h"
 155              		.file 8 "Generated_Source\\PSoC4/cytypes.h"